ccopy_reg
_reconstructor
p0
(cRefuelCore
SerpentInputFile
p1
c__builtin__
object
p2
Ntp3
Rp4
(dp5
S'convratio'
p6
NsS'geometry_name'
p7
S'MSRs2_geom.inp'
p8
sS'PowerNormalization'
p9
S''
p10
sS'volumetricflows'
p11
(lp12
sS'PPN'
p13
I8
sS'ratioflows'
p14
(lp15
sS'pitch'
p16
F34.0
sS'OffGasRate'
p17
NsS'convratiolist'
p18
(lp19
sS'AbsorberAdditionRate'
p20
NsS'core_size'
p21
S'4m'
p22
sS'job_done'
p23
I00
sS'salt_type'
p24
S'dflibe'
p25
sS'num_particles'
p26
I10000
sS'salt_fraction'
p27
F0.225
sS'holeradius'
p28
cnumpy.core.multiarray
scalar
p29
(cnumpy
dtype
p30
(S'f8'
p31
I0
I1
tp32
Rp33
(I3
S'<'
p34
NNNI-1
I-1
I0
tp35
bS'\xfd\xfc7\xd5i\xef @'
p36
tp37
Rp38
sS'num_nodes'
p39
I2
sS'submitted_once'
p40
I01
sS'initial_enrichment'
p41
F0.01
sS'tmp_or_tms'
p42
S'tmp'
p43
sS'BurnTime'
p44
(lp45
sS'inputfilename'
p46
S'2th0.004flibepuga'
p47
sS'num_cycles'
p48
I500
sS'directory'
p49
S'.'
p50
sS'fuelvolume'
p51
F16326492.8354819
sS'num_skipped_cycles'
p52
I100
sS'pmem'
p53
NsS'case'
p54
I1
sS'xslibfiles'
p55
S'set acelib "sss_endfb7u.xsdata"\n        set nfylib "sss_endfb7.nfy"\n        set declib "sss_endfb7.dec"\n\n'
p56
sS'kefflist'
p57
(lp58
F1.0008
asS'RefuelRate'
p59
NsS'queue'
p60
S'gen5'
p61
sS'tempK'
p62
I900
sS'betalist'
p63
(lp64
sS'materials'
p65
(lp66
g0
(cRefuelCore
SerpentMaterial
p67
g2
Ntp68
Rp69
(dp70
S'atomdensity'
p71
NsS'density'
p72
F-1.8
sg62
F950.0
sg42
g43
sS'burn'
p73
I00
sS'xstemplib'
p74
S'.09c'
p75
sS'volume'
p76
NsS'isotopic_content'
p77
(dp78
S'5010'
p79
F4e-07
sS'5011'
p80
F1.6e-06
sS'6000'
p81
F0.999998
ssg49
g50
sS'materialname'
p82
S'mod'
p83
sS'massdensity'
p84
F1.8
sbag0
(g67
g2
Ntp85
Rp86
(dp87
g71
Nsg72
F-8.86
sg62
F900.0
sg42
g43
sg73
I00
sg74
g75
sg76
Nsg77
(dp88
S'14030'
p89
F-0.00030872
sS'74186'
p90
F-0.0014215
sS'25055'
p91
F-0.008
sS'74184'
p92
F-0.001532
sS'74183'
p93
F-0.0007155
sS'74182'
p94
F-0.001325
sS'28058'
p95
F-0.4721201092
sS'42092'
p96
F-0.023744
sS'26058'
p97
F-0.000141
sS'42094'
p98
F-0.0148
sS'42095'
p99
F-0.025472
sS'42096'
p100
F-0.026688
sS'42097'
p101
F-0.01528
sS'42098'
p102
F-0.038608
sS'26056'
p103
F-0.045877
sS'26057'
p104
F-0.0010595
sS'26054'
p105
F-0.0029225
sS'42100'
p106
F-0.015408
sS'14028'
p107
F-0.00922297
sS'14029'
p108
F-0.00046832
sS'24050'
p109
F-0.0030415
sS'24052'
p110
F-0.0586523
sS'24053'
p111
F-0.0066507
sS'24054'
p112
F-0.0016555
sS'29065'
p113
F-0.00107905
sS'29063'
p114
F-0.00242095
sS'28064'
p115
F-0.0064191286
sS'28061'
p116
F-0.0079053205
sS'28060'
p117
F-0.1818598208
sS'28062'
p118
F-0.025205621
ssg49
g50
sg82
S'tank'
p119
sg84
F8.86
sbag0
(g67
g2
Ntp120
Rp121
(dp122
g71
F0.19533814440746072
sg72
F0.0
sg62
F900.0
sg42
g43
sg73
I00
sg74
g75
sg76
F16326492.8354819
sg77
(dp123
S'4009'
p124
F0.016106345420719054
sS'94239'
p125
F5.910415718894674e-06
sS'3007'
p126
F0.0733696826934854
sS'3006'
p127
F3.6686675680522685e-06
sS'31069'
p128
F1.3097353812916735e-07
sS'90232'
p129
F4.926584359431851e-05
sS'31071'
p130
F1.3097353812916735e-07
sS'9019'
p131
F0.10580262969324213
sS'94240'
p132
F3.797260566116153e-07
ssg49
g50
sg82
S'fuel'
p133
sg84
F0.0
sbasS'betaEff'
p134
NsS'maxdamageflux'
p135
Nsb.