ccopy_reg
_reconstructor
p0
(cRefuelCore
SerpentInputFile
p1
c__builtin__
object
p2
Ntp3
Rp4
(dp5
S'convratio'
p6
F0.72353
sS'geometry_name'
p7
S'MSRs2_geom.inp'
p8
sS'PowerNormalization'
p9
S'set power 300000000.0\n\n'
p10
sS'volumetricflows'
p11
(lp12
(S'refuel'
p13
S'fuel'
p14
F1.273370416587758e-08
tp15
a(S'absorbertank'
p16
g14
F0.0
tp17
a(g14
S'excessfueltank'
p18
F7.799408425490816e-10
tp19
asS'PPN'
p20
I8
sS'ratioflows'
p21
(lp22
(g14
S'offgastank'
p23
(lp24
S'Xe'
p25
aS'Kr'
p26
aS'Ar'
p27
aS'Ne'
p28
aS'He'
p29
aS'Ra'
p30
aF0.02
tp31
asS'pitch'
p32
F34.0
sS'OffGasRate'
p33
NsS'convratiolist'
p34
(lp35
F0.722021
aF0.72353
asS'AbsorberAdditionRate'
p36
NsS'core_size'
p37
S'4m'
p38
sS'job_done'
p39
I00
sS'salt_type'
p40
S'dflibe'
p41
sS'num_particles'
p42
I10000
sS'salt_fraction'
p43
F0.225
sS'holeradius'
p44
cnumpy.core.multiarray
scalar
p45
(cnumpy
dtype
p46
(S'f8'
p47
I0
I1
tp48
Rp49
(I3
S'<'
p50
NNNI-1
I-1
I0
tp51
bS'\xfd\xfc7\xd5i\xef @'
p52
tp53
Rp54
sS'num_nodes'
p55
I10
sS'submitted_once'
p56
I01
sS'refuelenrichment'
p57
F0.2
sS'initial_enrichment'
p58
F0.012097
sS'keff'
p59
F1.00189
sS'power'
p60
F300000000.0
sS'tmp_or_tms'
p61
S'tmp'
p62
sS'BurnTime'
p63
(lp64
S'7.0'
p65
asS'inputfilename'
p66
S'FLiBe4mcore'
p67
sS'num_cycles'
p68
I500
sS'directory'
p69
S'.'
p70
sS'fuelvolume'
p71
F16326492.8354819
sS'num_skipped_cycles'
p72
I100
sS'pmem'
p73
NsS'case'
p74
I1
sS'xslibfiles'
p75
S'set acelib "sss_endfb7u.xsdata"\nset nfylib "sss_endfb7.nfy"\nset declib "sss_endfb7.dec"\n\n'
p76
sS'kefflist'
p77
(lp78
F1.00189
asS'RefuelRate'
p79
NsS'queue'
p80
S'gen5'
p81
sS'tempK'
p82
I900
sS'betalist'
p83
(lp84
F0.0067654
aF0.00671982
aF0.00658629
aF0.00649551
aF0.00649528
aF0.00651765
aF0.00644845
aF0.00640183
aF0.00635299
aF0.00633061
aF0.00629503
aF0.00628059
aF0.0062908
aF0.00625204
aF0.00622687
aF0.00603631
aF0.00604279
aF0.00596621
aF0.00604511
aF0.00603926
aF0.006053
aF0.00596624
aF0.00588057
aF0.00595042
aF0.00592014
aF0.00590346
aF0.00582643
aF0.00581775
aF0.00585696
aF0.00586016
aF0.00573549
aF0.005612
aF0.00566118
aF0.00576493
aF0.00569004
aF0.00555188
aF0.00567108
aF0.00559613
aF0.00556427
aF0.00557516
aF0.00563384
aF0.00551883
aF0.00556104
aF0.00558002
aF0.0055514
aF0.00555333
aF0.0055604
aF0.00550521
aF0.00550196
aF0.00549163
aF0.00540817
aF0.00538566
aF0.00531646
aF0.00533843
aF0.00548505
aF0.00532164
aF0.00532436
aF0.00537789
aF0.00539594
aF0.00528484
aF0.00528738
aF0.00537695
aF0.00526463
aF0.00526427
aF0.00533034
aF0.00529182
aF0.00518253
aF0.00526568
aF0.00532825
aF0.00512217
aF0.00519334
aF0.00520883
aF0.00522348
aF0.00516279
aF0.00522041
aF0.00521662
aF0.00515883
aF0.0051796
aF0.00519917
aF0.00522155
aF0.00508811
aF0.00522643
aF0.00505923
aF0.00516492
aF0.00506861
aF0.00507599
aF0.0051118
aF0.00507022
aF0.00520721
aF0.00517458
aF0.00507709
aF0.00513674
aF0.00513444
aF0.00516184
aF0.00509968
aF0.00508851
aF0.00508054
aF0.00502586
asS'materials'
p85
(lp86
g0
(cRefuelCore
SerpentMaterial
p87
g2
Ntp88
Rp89
(dp90
S'atomdensity'
p91
F0.0819581375039613
sS'density'
p92
F0.0819581375039613
sg82
S''
p93
sS'burn'
p94
I01
sS'xstemplib'
p95
S'.09c'
p96
sS'volume'
p97
F16326500.0
sS'isotopic_content'
p98
(dp99
S'58138'
p100
F5.94002181274534e-16
sS'48116'
p101
F4.38894901624224e-09
sS'66164'
p102
F1.65977450499049e-11
sS'48114'
p103
F1.01227655470147e-08
sS'48113'
p104
F3.48714307053262e-10
sS'48112'
p105
F6.33614955012658e-09
sS'48111'
p106
F1.46491952873761e-08
sS'21045'
p107
F4.59990182407733e-71
sS'95243'
p108
F1.00295917810127e-09
sS'63151'
p109
F4.87568699409944e-11
sS'58136'
p110
F3.90942237785894e-27
sS'60146'
p111
F4.92429948933998e-07
sS'61348'
p112
F1.18613309767344e-09
sS'62144'
p113
F3.47614896963816e-23
sS'62147'
p114
F3.63701491468107e-08
sS'8017'
p115
F1.14044494651227e-10
sS'8016'
p116
F2.14776154860331e-07
sS'40090'
p117
F5.66178973372588e-09
sS'40091'
p118
F5.24380350521442e-07
sS'40096'
p119
F1.0050342748284e-06
sS'40094'
p120
F9.91230237945801e-07
sS'40095'
p121
F2.59826343538209e-07
sS'46102'
p122
F1.5569208529185e-16
sS'96250'
p123
F1.10172415368824e-28
sS'46106'
p124
F7.06651445414058e-08
sS'46107'
p125
F1.5841789130943e-07
sS'46104'
p126
F3.58366191660395e-08
sS'46105'
p127
F3.45019958820867e-07
sS'63154'
p128
F3.0401563185474e-09
sS'63155'
p129
F3.66839925983515e-09
sS'46108'
p130
F9.8067209596508e-08
sS'48110'
p131
F2.7343283396757e-09
sS'28058'
p132
F4.11001336325692e-49
sS'28059'
p133
F2.66055842676602e-41
sS'63152'
p134
F4.63066269211163e-11
sS'58140'
p135
F8.07145714632902e-07
sS'54131'
p136
F8.69300136523173e-13
sS'64153'
p137
F1.3048350288604e-11
sS'64152'
p138
F1.62110775322189e-10
sS'64155'
p139
F1.23478733937329e-10
sS'60148'
p140
F2.84993337169478e-07
sS'64157'
p141
F1.86255126911597e-10
sS'60144'
p142
F3.30591820011684e-07
sS'57140'
p143
F5.98851564207668e-09
sS'56136'
p144
F4.39290818585458e-09
sS'58142'
p145
F9.26787996273403e-07
sS'96245'
p146
F3.61690635468468e-13
sS'34082'
p147
F5.03164539735363e-08
sS'46110'
p148
F3.10917732677596e-08
sS'42100'
p149
F1.07729480960013e-06
sS'48106'
p150
F3.20320408880403e-21
sS'48108'
p151
F7.44613062398037e-15
sS'63153'
p152
F4.61137475657379e-08
sS'42097'
p153
F6.17739030332956e-07
sS'14028'
p154
F4.77420521287834e-109
sS'41093'
p155
F2.21047681132615e-14
sS'24050'
p156
F1.33427462078595e-67
sS'24052'
p157
F1.24548892233155e-49
sS'24053'
p158
F1.17638691583926e-49
sS'24054'
p159
F6.69908702449802e-44
sS'54126'
p160
F1.78378341122158e-21
sS'54124'
p161
F2.04529690187284e-37
sS'65159'
p162
F1.05832837498117e-09
sS'58144'
p163
F5.70309312611914e-07
sS'54129'
p164
F9.51682083059319e-21
sS'54128'
p165
F4.02395780704976e-16
sS'58141'
p166
F1.22446569863607e-07
sS'56138'
p167
F1.35573990412542e-07
sS'58143'
p168
F5.19032382114826e-09
sS'41094'
p169
F7.19583183094712e-13
sS'20043'
p170
F1.62920425770483e-74
sS'20042'
p171
F6.24732461086384e-79
sS'34080'
p172
F2.00480951771046e-08
sS'20040'
p173
F7.0809275708761e-101
sS'41095'
p174
F1.38281146265637e-07
sS'20046'
p175
F5.21943888595298e-66
sS'11023'
p176
F2.93708698607072e-119
sS'20044'
p177
F1.36311278834324e-70
sS'60145'
p178
F5.78988552830283e-07
sS'20048'
p179
F3.53437054288224e-72
sS'67165'
p180
F1.16671474893247e-11
sS'35079'
p181
F3.93079030149115e-12
sS'68164'
p182
F1.70916388473918e-16
sS'92240'
p183
F7.78118456039407e-14
sS'51123'
p184
F3.63222369818364e-09
sS'59143'
p185
F5.1091134315975e-08
sS'68166'
p186
F1.3314546372237e-12
sS'90234'
p187
F5.63551354781996e-14
sS'5010'
p188
F4.33420683596067e-17
sS'5011'
p189
F3.87789321986356e-17
sS'65160'
p190
F9.05534631531078e-12
sS'52126'
p191
F4.65751283462927e-10
sS'52120'
p192
F1.91257572769768e-19
sS'52123'
p193
F3.20971608135887e-14
sS'52122'
p194
F1.23229293414355e-11
sS'94237'
p195
F2.99262123902193e-15
sS'94236'
p196
F1.95071467106581e-17
sS'25055'
p197
F1.63404500352122e-41
sS'52128'
p198
F6.8985944673583e-08
sS'40092'
p199
F8.25992347852475e-07
sS'95244'
p200
F2.16363266634177e-14
sS'40093'
p201
F8.68017000580477e-07
sS'54134'
p202
F2.20087430042939e-12
sS'54135'
p203
F1.67882223811051e-12
sS'54136'
p204
F1.86527949681908e-12
sS'54130'
p205
F3.08879349164321e-15
sS'9019'
p206
F0.0494320912218485
sS'54132'
p207
F1.33045409494903e-12
sS'54133'
p208
F1.89022741619742e-12
sS'32072'
p209
F5.69267506974298e-12
sS'39089'
p210
F1.0847575146036e-07
sS'93237'
p211
F4.54945901891149e-08
sS'91233'
p212
F1.34626194727726e-15
sS'93235'
p213
F2.02637467571047e-17
sS'55137'
p214
F1.64178659621122e-07
sS'55136'
p215
F1.71064170203381e-10
sS'55135'
p216
F1.59105804723494e-09
sS'55134'
p217
F2.50132953529257e-11
sS'55133'
p218
F7.00126244296039e-11
sS'64154'
p219
F2.2259987844261e-09
sS'56132'
p220
F1.4463482459846e-16
sS'49115'
p221
F1.89280170078481e-09
sS'56130'
p222
F1.43001734540442e-26
sS'13027'
p223
F3.05343813533643e-109
sS'56137'
p224
F2.01296724735212e-09
sS'31069'
p225
F1.01007009130058e-12
sS'49113'
p226
F2.93735976275728e-14
sS'90233'
p227
F2.74161550618824e-20
sS'90232'
p228
F3.89593556155383e-14
sS'45105'
p229
F2.75440819634464e-09
sS'90230'
p230
F2.34943599732931e-16
sS'45103'
p231
F5.21783381361454e-07
sS'39091'
p232
F1.5560184944924e-07
sS'47310'
p233
F1.00912473896941e-10
sS'52132'
p234
F1.03810690410775e-08
sS'17035'
p235
F2.13165032632499e-93
sS'52130'
p236
F3.23967825509489e-07
sS'17037'
p237
F3.79384199216958e-88
sS'92235'
p238
F5.33576523510731e-05
sS'94239'
p239
F8.78613223408989e-06
sS'61149'
p240
F1.94042849889849e-09
sS'93239'
p241
F1.44125010994309e-07
sS'16036'
p242
F1.42193041340974e-86
sS'56133'
p243
F1.21122502875254e-16
sS'95342'
p244
F4.22675651174416e-11
sS'63156'
p245
F1.42220701852017e-09
sS'95344'
p246
F1.40221384961323e-14
sS'53130'
p247
F3.62162237431422e-12
sS'51125'
p248
F8.57061568672821e-09
sS'91231'
p249
F3.71401632692484e-14
sS'91232'
p250
F6.41222414640972e-17
sS'53129'
p251
F1.21091829995626e-07
sS'96240'
p252
F4.44954990911482e-21
sS'96241'
p253
F2.34780061805114e-18
sS'96242'
p254
F5.47154979463272e-10
sS'51121'
p255
F2.87277778138483e-09
sS'68168'
p256
F8.73842898801714e-13
sS'16033'
p257
F2.06263164623089e-96
sS'15031'
p258
F1.68259630846824e-102
sS'90228'
p259
F1.85974987030299e-17
sS'90229'
p260
F9.40037477261901e-19
sS'19041'
p261
F3.14835365100787e-81
sS'19040'
p262
F1.61147040382455e-90
sS'44104'
p263
F4.98619991853472e-07
sS'44105'
p264
F3.5856917179507e-10
sS'44106'
p265
F1.83825654217174e-07
sS'50119'
p266
F3.6554320632007e-09
sS'44100'
p267
F1.51714946605067e-08
sS'44101'
p268
F8.99680711593554e-07
sS'44102'
p269
F8.07726021567666e-07
sS'16032'
p270
F1.89492935785478e-100
sS'50112'
p271
F1.86908451009246e-19
sS'31071'
p272
F4.12989901115659e-12
sS'52125'
p273
F7.40817293226166e-10
sS'38089'
p274
F2.70269107059605e-08
sS'1003'
p275
F3.8524634860765e-07
sS'1002'
p276
F7.46262418007409e-10
sS'1001'
p277
F3.38466919572749e-10
sS'50115'
p278
F1.07487876565867e-10
sS'96247'
p279
F5.27640830508312e-18
sS'14030'
p280
F9.88650856526993e-101
sS'63157'
p281
F1.53361271436051e-11
sS'52124'
p282
F1.24977606972953e-11
sS'62150'
p283
F1.83219933380106e-07
sS'59142'
p284
F1.50507484833375e-11
sS'3007'
p285
F0.0234134406781482
sS'3006'
p286
F8.44962457372145e-07
sS'60150'
p287
F1.25178871902534e-07
sS'93238'
p288
F6.11052160957874e-11
sS'54123'
p289
F2.74906426021158e-50
sS'32070'
p290
F1.790397337262e-15
sS'7014'
p291
F1.75071571652587e-16
sS'7015'
p292
F5.83834529486592e-08
sS'32074'
p293
F7.59923984512959e-11
sS'32076'
p294
F5.27524305098732e-10
sS'50126'
p295
F1.61014714754844e-08
sS'50125'
p296
F2.77299071111212e-10
sS'50124'
p297
F7.49984228900447e-09
sS'50123'
p298
F9.97627305169101e-10
sS'50122'
p299
F4.16668078024465e-09
sS'33074'
p300
F3.08118513406309e-17
sS'33075'
p301
F1.97256970568187e-10
sS'68170'
p302
F1.02169128176271e-13
sS'94238'
p303
F2.87707715059758e-09
sS'37087'
p304
F3.64885179342188e-09
sS'37086'
p305
F9.39695835539157e-13
sS'37085'
p306
F6.15348146008092e-10
sS'30064'
p307
F5.36224291036311e-24
sS'38090'
p308
F4.85691643732882e-07
sS'52329'
p309
F7.01291965707309e-12
sS'52327'
p310
F2.67951278538547e-10
sS'53135'
p311
F1.23236383239138e-09
sS'32073'
p312
F2.71463614187455e-11
sS'11022'
p313
F2.10603848997775e-129
sS'66156'
p314
F2.91354244199145e-20
sS'53131'
p315
F1.75891701155212e-08
sS'18040'
p316
F6.17244837542639e-86
sS'96244'
p317
F3.84528637782336e-11
sS'56140'
p318
F4.53194061505124e-08
sS'34077'
p319
F7.74988328736105e-10
sS'34076'
p320
F8.65240555650076e-13
sS'34074'
p321
F8.47401926926271e-17
sS'34079'
p322
F7.39388517261259e-09
sS'34078'
p323
F3.36112086083281e-09
sS'96246'
p324
F4.04834768558293e-15
sS'12024'
p325
F4.31917469106736e-117
sS'12025'
p326
F6.05056333636889e-116
sS'12026'
p327
F5.17822905523982e-111
sS'22046'
p328
F5.79835980479e-72
sS'60142'
p329
F2.15059224886136e-09
sS'60143'
p330
F8.23723319597148e-07
sS'68162'
p331
F1.9874014929734e-20
sS'64158'
p332
F4.73899932105642e-08
sS'94244'
p333
F5.80007330047797e-14
sS'22049'
p334
F7.42650889039021e-58
sS'22048'
p335
F2.09671004128241e-60
sS'44098'
p336
F2.10010155112055e-17
sS'44099'
p337
F3.25532816863638e-11
sS'50120'
p338
F3.54034263120366e-09
sS'95242'
p339
F9.51513231973585e-12
sS'96243'
p340
F1.69015415003286e-12
sS'56134'
p341
F3.21464859496192e-12
sS'38086'
p342
F7.63496022830767e-12
sS'38087'
p343
F1.34263790103384e-12
sS'38084'
p344
F1.58490916321075e-17
sS'18036'
p345
F3.20248994120472e-108
sS'48315'
p346
F5.03709856117138e-11
sS'53127'
p347
F1.45593912676825e-08
sS'61147'
p348
F2.95962584817978e-07
sS'51124'
p349
F7.39919892455311e-12
sS'28064'
p350
F1.18518360628612e-23
sS'51126'
p351
F2.09105548852861e-11
sS'16034'
p352
F5.27194096592301e-96
sS'28061'
p353
F1.41592162230904e-26
sS'28060'
p354
F5.86065822470828e-33
sS'38088'
p355
F6.73512720549701e-09
sS'28062'
p356
F5.71226642164408e-25
sS'64156'
p357
F4.95371526228743e-08
sS'92233'
p358
F1.2907804838346e-13
sS'43099'
p359
F9.56169947240542e-07
sS'62148'
p360
F1.87834749440501e-08
sS'92234'
p361
F1.85280097774996e-10
sS'96248'
p362
F4.11728864827676e-20
sS'50114'
p363
F5.58256877759726e-16
sS'56135'
p364
F4.47228062897903e-13
sS'66162'
p365
F9.37250105286144e-11
sS'96249'
p366
F1.73401936667811e-25
sS'36080'
p367
F2.64431340858757e-19
sS'47107'
p368
F6.45015660107652e-15
sS'6012'
p369
F1.55582556785419e-15
sS'39090'
p370
F1.22671146970797e-10
sS'22050'
p371
F4.94548431670937e-57
sS'92239'
p372
F9.96134336387561e-10
sS'35081'
p373
F3.28678454689386e-08
sS'93236'
p374
F1.19895376665709e-14
sS'36082'
p375
F4.97982619355745e-16
sS'36083'
p376
F2.45829789384154e-15
sS'36084'
p377
F2.24853618779302e-13
sS'18038'
p378
F6.70766821213965e-92
sS'36086'
p379
F4.07251873809568e-13
sS'42092'
p380
F1.57166698713463e-21
sS'4009'
p381
F0.00520305651788898
sS'62149'
p382
F7.53347620249036e-09
sS'94243'
p383
F3.44699526989223e-12
sS'90227'
p384
F1.88405874285256e-23
sS'47109'
p385
F5.6211179147817e-08
sS'59141'
p386
F7.85335957219307e-07
sS'66163'
p387
F4.57670518085571e-11
sS'50118'
p388
F3.56226125680741e-09
sS'36085'
p389
F1.76651410805599e-14
sS'26058'
p390
F3.55977186482904e-33
sS'61151'
p391
F4.5652706621886e-10
sS'42094'
p392
F1.67666089598564e-13
sS'42095'
p393
F6.09597278514236e-07
sS'42096'
p394
F4.38530648214972e-09
sS'19039'
p395
F7.23662042125377e-93
sS'42098'
p396
F9.69836976457948e-07
sS'42099'
p397
F1.18521371636343e-08
sS'26056'
p398
F2.96027766244053e-42
sS'26057'
p399
F7.81939545218053e-40
sS'26054'
p400
F5.28804841727271e-57
sS'92238'
p401
F0.00381875148115191
sS'14029'
p402
F5.50411956170609e-105
sS'94240'
p403
F1.75900552069544e-06
sS'67366'
p404
F7.10495252896986e-15
sS'66160'
p405
F9.78509485165994e-12
sS'44103'
p406
F1.22227384757923e-07
sS'23051'
p407
F9.26165430419898e-52
sS'95241'
p408
F5.90552259581871e-09
sS'64160'
p409
F2.26258318222678e-08
sS'62154'
p410
F2.09122583440066e-08
sS'62153'
p411
F5.83646561482694e-10
sS'62152'
p412
F1.01216477714244e-07
sS'62151'
p413
F3.09158222819998e-08
sS'47111'
p414
F6.62979231309507e-10
sS'27059'
p415
F1.4757917659513e-34
sS'27058'
p416
F1.13769424462768e-42
sS'68167'
p417
F6.99761551486963e-13
sS'92237'
p418
F2.19453558559754e-09
sS'57139'
p419
F6.22903044988068e-07
sS'44096'
p420
F2.06470432700959e-28
sS'94241'
p421
F4.64610922838677e-07
sS'92236'
p422
F2.61129820146551e-06
sS'60147'
p423
F1.66009874879905e-08
sS'66161'
p424
F6.26284404003453e-11
sS'50116'
p425
F3.63667522995688e-10
sS'50113'
p426
F2.72988366111386e-21
sS'22047'
p427
F9.43269860902599e-64
sS'94242'
p428
F3.53363993950184e-08
sS'50117'
p429
F3.86263800943047e-09
sS'2003'
p430
F3.4341359105905e-14
sS'66158'
p431
F7.82133509316526e-18
sS'29065'
p432
F2.92902851433315e-16
sS'58139'
p433
F8.87369932783761e-14
sS'29063'
p434
F1.45727054572464e-31
sS'2004'
p435
F2.99994976792941e-12
sS'92241'
p436
F1.2748670544915e-19
sS'92232'
p437
F6.21995450550722e-15
sS'57138'
p438
F6.34075494998612e-12
sS'36078'
p439
F3.39050593572663e-26
sS'61148'
p440
F6.35296732476666e-10
ssg69
g70
sS'materialname'
p441
g14
sS'massdensity'
p442
Nsbag0
(g87
g2
Ntp443
Rp444
(dp445
g91
Nsg92
F-1.8
sg82
g93
sg61
g93
sg94
I00
sg95
g96
sg97
Nsg98
(dp446
S'5010'
p447
F4e-07
sS'5011'
p448
F1.6e-06
sS'6000'
p449
F0.999998
ssg69
g70
sg441
S'mod'
p450
sg442
F1.8
sbag0
(g87
g2
Ntp451
Rp452
(dp453
g91
Nsg92
F-8.86
sg82
g93
sg61
g93
sg94
I00
sg95
g96
sg97
Nsg98
(dp454
S'14030'
p455
F-0.00030872
sS'74186'
p456
F-0.0014215
sS'25055'
p457
F-0.008
sS'74184'
p458
F-0.001532
sS'74183'
p459
F-0.0007155
sS'74182'
p460
F-0.001325
sS'28058'
p461
F-0.4721201092
sS'42092'
p462
F-0.023744
sS'26058'
p463
F-0.000141
sS'42094'
p464
F-0.0148
sS'42095'
p465
F-0.025472
sS'42096'
p466
F-0.026688
sS'42097'
p467
F-0.01528
sS'42098'
p468
F-0.038608
sS'26056'
p469
F-0.045877
sS'26057'
p470
F-0.0010595
sS'26054'
p471
F-0.0029225
sS'42100'
p472
F-0.015408
sS'14028'
p473
F-0.00922297
sS'14029'
p474
F-0.00046832
sS'24050'
p475
F-0.0030415
sS'24052'
p476
F-0.0586523
sS'24053'
p477
F-0.0066507
sS'24054'
p478
F-0.0016555
sS'29065'
p479
F-0.00107905
sS'29063'
p480
F-0.00242095
sS'28064'
p481
F-0.0064191286
sS'28061'
p482
F-0.0079053205
sS'28060'
p483
F-0.1818598208
sS'28062'
p484
F-0.025205621
ssg69
g70
sg441
S'tank'
p485
sg442
F8.86
sbag0
(g87
g2
Ntp486
Rp487
(dp488
g91
F0.0795987893431214
sg92
F0.0795987893431214
sg82
g93
sg94
I01
sg95
g96
sg97
F1000000.0
sg98
(dp489
S'58138'
p490
F0.0
sS'48116'
p491
F0.0
sS'66164'
p492
F0.0
sS'48114'
p493
F0.0
sS'48113'
p494
F0.0
sS'48112'
p495
F0.0
sS'48111'
p496
F0.0
sS'21045'
p497
F0.0
sS'95243'
p498
F0.0
sS'63151'
p499
F0.0
sS'58136'
p500
F0.0
sS'60146'
p501
F0.0
sS'61348'
p502
F0.0
sS'62144'
p503
F0.0
sS'62147'
p504
F0.0
sS'8017'
p505
F0.0
sS'8016'
p506
F0.0
sS'40090'
p507
F0.0
sS'40091'
p508
F0.0
sS'40096'
p509
F0.0
sS'40094'
p510
F0.0
sS'40095'
p511
F0.0
sS'46102'
p512
F0.0
sS'96250'
p513
F0.0
sS'46106'
p514
F0.0
sS'46107'
p515
F0.0
sS'46104'
p516
F0.0
sS'46105'
p517
F0.0
sS'63154'
p518
F0.0
sS'63155'
p519
F0.0
sS'46108'
p520
F0.0
sS'48110'
p521
F0.0
sS'28058'
p522
F0.0
sS'28059'
p523
F0.0
sS'63152'
p524
F0.0
sS'58140'
p525
F0.0
sS'54131'
p526
F0.0
sS'64153'
p527
F0.0
sS'64152'
p528
F0.0
sS'64155'
p529
F0.0
sS'60148'
p530
F0.0
sS'64157'
p531
F0.0
sS'60144'
p532
F0.0
sS'57140'
p533
F0.0
sS'56136'
p534
F0.0
sS'58142'
p535
F0.0
sS'96245'
p536
F0.0
sS'34082'
p537
F0.0
sS'46110'
p538
F0.0
sS'42100'
p539
F0.0
sS'48106'
p540
F0.0
sS'48108'
p541
F0.0
sS'63153'
p542
F0.0
sS'42097'
p543
F0.0
sS'14028'
p544
F0.0
sS'41093'
p545
F0.0
sS'24050'
p546
F0.0
sS'24052'
p547
F0.0
sS'24053'
p548
F0.0
sS'24054'
p549
F0.0
sS'54126'
p550
F0.0
sS'54124'
p551
F0.0
sS'65159'
p552
F0.0
sS'58144'
p553
F0.0
sS'54129'
p554
F0.0
sS'54128'
p555
F0.0
sS'58141'
p556
F0.0
sS'56138'
p557
F0.0
sS'58143'
p558
F0.0
sS'41094'
p559
F0.0
sS'20043'
p560
F0.0
sS'20042'
p561
F0.0
sS'34080'
p562
F0.0
sS'20040'
p563
F0.0
sS'41095'
p564
F0.0
sS'20046'
p565
F0.0
sS'11023'
p566
F0.0
sS'20044'
p567
F0.0
sS'60145'
p568
F0.0
sS'20048'
p569
F0.0
sS'67165'
p570
F0.0
sS'35079'
p571
F0.0
sS'68164'
p572
F0.0
sS'92240'
p573
F0.0
sS'51123'
p574
F0.0
sS'59143'
p575
F0.0
sS'68166'
p576
F0.0
sS'90234'
p577
F4.49049176185148e-14
sS'5010'
p578
F0.0
sS'5011'
p579
F0.0
sS'65160'
p580
F0.0
sS'52126'
p581
F0.0
sS'52120'
p582
F0.0
sS'52123'
p583
F0.0
sS'52122'
p584
F0.0
sS'94237'
p585
F0.0
sS'94236'
p586
F0.0
sS'25055'
p587
F0.0
sS'52128'
p588
F0.0
sS'40092'
p589
F0.0
sS'95244'
p590
F0.0
sS'40093'
p591
F0.0
sS'54134'
p592
F0.0
sS'54135'
p593
F0.0
sS'54136'
p594
F0.0
sS'54130'
p595
F0.0
sS'9019'
p596
F0.0480067465761547
sS'54132'
p597
F0.0
sS'54133'
p598
F0.0
sS'32072'
p599
F0.0
sS'39089'
p600
F0.0
sS'93237'
p601
F0.0
sS'91233'
p602
F0.0
sS'93235'
p603
F0.0
sS'55137'
p604
F0.0
sS'55136'
p605
F0.0
sS'55135'
p606
F0.0
sS'55134'
p607
F0.0
sS'55133'
p608
F0.0
sS'64154'
p609
F0.0
sS'56132'
p610
F0.0
sS'49115'
p611
F0.0
sS'56130'
p612
F0.0
sS'13027'
p613
F0.0
sS'56137'
p614
F0.0
sS'31069'
p615
F0.0
sS'49113'
p616
F0.0
sS'90233'
p617
F0.0
sS'90232'
p618
F0.0
sS'45105'
p619
F0.0
sS'90230'
p620
F4.51596155845333e-19
sS'45103'
p621
F0.0
sS'39091'
p622
F0.0
sS'47310'
p623
F0.0
sS'52132'
p624
F0.0
sS'17035'
p625
F0.0
sS'52130'
p626
F0.0
sS'17037'
p627
F0.0
sS'92235'
p628
F0.000757897466001984
sS'94239'
p629
F0.0
sS'61149'
p630
F0.0
sS'93239'
p631
F0.0
sS'16036'
p632
F0.0
sS'56133'
p633
F0.0
sS'95342'
p634
F0.0
sS'63156'
p635
F0.0
sS'95344'
p636
F0.0
sS'53130'
p637
F0.0
sS'51125'
p638
F0.0
sS'91231'
p639
F5.48781781543356e-13
sS'91232'
p640
F0.0
sS'53129'
p641
F0.0
sS'96240'
p642
F0.0
sS'96241'
p643
F0.0
sS'96242'
p644
F0.0
sS'51121'
p645
F0.0
sS'68168'
p646
F0.0
sS'16033'
p647
F0.0
sS'15031'
p648
F0.0
sS'90228'
p649
F0.0
sS'90229'
p650
F0.0
sS'19041'
p651
F0.0
sS'19040'
p652
F0.0
sS'44104'
p653
F0.0
sS'44105'
p654
F0.0
sS'44106'
p655
F0.0
sS'50119'
p656
F0.0
sS'44100'
p657
F0.0
sS'44101'
p658
F0.0
sS'44102'
p659
F0.0
sS'16032'
p660
F0.0
sS'50112'
p661
F0.0
sS'31071'
p662
F0.0
sS'52125'
p663
F0.0
sS'38089'
p664
F0.0
sS'1003'
p665
F0.0
sS'1002'
p666
F0.0
sS'1001'
p667
F0.0
sS'50115'
p668
F0.0
sS'96247'
p669
F0.0
sS'14030'
p670
F0.0
sS'63157'
p671
F0.0
sS'52124'
p672
F0.0
sS'62150'
p673
F0.0
sS'59142'
p674
F0.0
sS'3007'
p675
F0.0227386659286784
sS'3006'
p676
F1.13701070698892e-06
sS'60150'
p677
F0.0
sS'93238'
p678
F0.0
sS'54123'
p679
F0.0
sS'32070'
p680
F0.0
sS'7014'
p681
F0.0
sS'7015'
p682
F0.0
sS'32074'
p683
F0.0
sS'32076'
p684
F0.0
sS'50126'
p685
F0.0
sS'50125'
p686
F0.0
sS'50124'
p687
F0.0
sS'50123'
p688
F0.0
sS'50122'
p689
F0.0
sS'33074'
p690
F0.0
sS'33075'
p691
F0.0
sS'68170'
p692
F0.0
sS'94238'
p693
F0.0
sS'37087'
p694
F0.0
sS'37086'
p695
F0.0
sS'37085'
p696
F0.0
sS'30064'
p697
F0.0
sS'38090'
p698
F0.0
sS'52329'
p699
F0.0
sS'52327'
p700
F0.0
sS'53135'
p701
F0.0
sS'32073'
p702
F0.0
sS'11022'
p703
F0.0
sS'66156'
p704
F0.0
sS'53131'
p705
F0.0
sS'18040'
p706
F0.0
sS'96244'
p707
F0.0
sS'56140'
p708
F0.0
sS'34077'
p709
F0.0
sS'34076'
p710
F0.0
sS'34074'
p711
F0.0
sS'34079'
p712
F0.0
sS'34078'
p713
F0.0
sS'96246'
p714
F0.0
sS'12024'
p715
F0.0
sS'12025'
p716
F0.0
sS'12026'
p717
F0.0
sS'22046'
p718
F0.0
sS'60142'
p719
F0.0
sS'60143'
p720
F0.0
sS'68162'
p721
F0.0
sS'64158'
p722
F0.0
sS'94244'
p723
F0.0
sS'22049'
p724
F0.0
sS'22048'
p725
F0.0
sS'44098'
p726
F0.0
sS'44099'
p727
F0.0
sS'50120'
p728
F0.0
sS'95242'
p729
F0.0
sS'96243'
p730
F0.0
sS'56134'
p731
F0.0
sS'38086'
p732
F0.0
sS'38087'
p733
F0.0
sS'38084'
p734
F0.0
sS'18036'
p735
F0.0
sS'48315'
p736
F0.0
sS'53127'
p737
F0.0
sS'61147'
p738
F0.0
sS'51124'
p739
F0.0
sS'28064'
p740
F0.0
sS'51126'
p741
F0.0
sS'16034'
p742
F0.0
sS'28061'
p743
F0.0
sS'28060'
p744
F0.0
sS'38088'
p745
F0.0
sS'28062'
p746
F0.0
sS'64156'
p747
F0.0
sS'92233'
p748
F0.0
sS'43099'
p749
F0.0
sS'62148'
p750
F0.0
sS'92234'
p751
F3.74980474732404e-13
sS'96248'
p752
F0.0
sS'50114'
p753
F0.0
sS'56135'
p754
F0.0
sS'66162'
p755
F0.0
sS'96249'
p756
F0.0
sS'36080'
p757
F0.0
sS'47107'
p758
F0.0
sS'6012'
p759
F0.0
sS'39090'
p760
F0.0
sS'22050'
p761
F0.0
sS'92239'
p762
F0.0
sS'35081'
p763
F0.0
sS'93236'
p764
F0.0
sS'36082'
p765
F0.0
sS'36083'
p766
F0.0
sS'36084'
p767
F0.0
sS'18038'
p768
F0.0
sS'36086'
p769
F0.0
sS'42092'
p770
F0.0
sS'4009'
p771
F0.00505327927634523
sS'62149'
p772
F0.0
sS'94243'
p773
F0.0
sS'90227'
p774
F2.46230000539806e-22
sS'47109'
p775
F0.0
sS'59141'
p776
F0.0
sS'66163'
p777
F0.0
sS'50118'
p778
F0.0
sS'36085'
p779
F0.0
sS'26058'
p780
F0.0
sS'61151'
p781
F0.0
sS'42094'
p782
F0.0
sS'42095'
p783
F0.0
sS'42096'
p784
F0.0
sS'19039'
p785
F0.0
sS'42098'
p786
F0.0
sS'42099'
p787
F0.0
sS'26056'
p788
F0.0
sS'26057'
p789
F0.0
sS'26054'
p790
F0.0
sS'92238'
p791
F0.0030410630831181
sS'14029'
p792
F0.0
sS'94240'
p793
F0.0
sS'67366'
p794
F0.0
sS'66160'
p795
F0.0
sS'44103'
p796
F0.0
sS'23051'
p797
F0.0
sS'95241'
p798
F0.0
sS'64160'
p799
F0.0
sS'62154'
p800
F0.0
sS'62153'
p801
F0.0
sS'62152'
p802
F0.0
sS'62151'
p803
F0.0
sS'47111'
p804
F0.0
sS'27059'
p805
F0.0
sS'27058'
p806
F0.0
sS'68167'
p807
F0.0
sS'92237'
p808
F0.0
sS'57139'
p809
F0.0
sS'44096'
p810
F0.0
sS'94241'
p811
F0.0
sS'92236'
p812
F0.0
sS'60147'
p813
F0.0
sS'66161'
p814
F0.0
sS'50116'
p815
F0.0
sS'50113'
p816
F0.0
sS'22047'
p817
F0.0
sS'94242'
p818
F0.0
sS'50117'
p819
F0.0
sS'2003'
p820
F0.0
sS'66158'
p821
F0.0
sS'29065'
p822
F0.0
sS'58139'
p823
F0.0
sS'29063'
p824
F0.0
sS'2004'
p825
F1.14377959386596e-12
sS'92241'
p826
F0.0
sS'92232'
p827
F0.0
sS'57138'
p828
F0.0
sS'36078'
p829
F0.0
sS'61148'
p830
F0.0
ssg69
g70
sg441
g13
sg442
Nsbag0
(g87
g2
Ntp831
Rp832
(dp833
g91
F0.000210874065636858
sg92
F0.000210874065636858
sg82
g93
sg94
I01
sg95
g96
sg97
F1000000.0
sg98
(dp834
S'58138'
p835
F0.0
sS'48116'
p836
F0.0
sS'66164'
p837
F0.0
sS'48114'
p838
F0.0
sS'48113'
p839
F0.0
sS'48112'
p840
F0.0
sS'48111'
p841
F0.0
sS'21045'
p842
F6.93409738265427e-86
sS'95243'
p843
F0.0
sS'63151'
p844
F0.0
sS'58136'
p845
F0.0
sS'60146'
p846
F3.01744683759765e-13
sS'61348'
p847
F0.0
sS'62144'
p848
F0.0
sS'62147'
p849
F1.44275870001085e-15
sS'8017'
p850
F0.0
sS'8016'
p851
F0.0
sS'40090'
p852
F6.30577169287839e-08
sS'40091'
p853
F1.08047253949401e-06
sS'40096'
p854
F1.65025337103461e-10
sS'40094'
p855
F1.34116627217146e-09
sS'40095'
p856
F2.55551953430022e-11
sS'46102'
p857
F0.0
sS'96250'
p858
F0.0
sS'46106'
p859
F0.0
sS'46107'
p860
F0.0
sS'46104'
p861
F0.0
sS'46105'
p862
F0.0
sS'63154'
p863
F0.0
sS'63155'
p864
F0.0
sS'46108'
p865
F0.0
sS'48110'
p866
F0.0
sS'28058'
p867
F0.0
sS'28059'
p868
F0.0
sS'63152'
p869
F0.0
sS'58140'
p870
F2.39366275561888e-06
sS'54131'
p871
F8.05453066068456e-06
sS'64153'
p872
F0.0
sS'64152'
p873
F0.0
sS'64155'
p874
F0.0
sS'60148'
p875
F0.0
sS'64157'
p876
F0.0
sS'60144'
p877
F7.51821761703298e-11
sS'57140'
p878
F1.61462160585662e-08
sS'56136'
p879
F0.0
sS'58142'
p880
F3.83681831255474e-08
sS'96245'
p881
F0.0
sS'34082'
p882
F0.0
sS'46110'
p883
F0.0
sS'42100'
p884
F2.7621261353107e-15
sS'48106'
p885
F0.0
sS'48108'
p886
F0.0
sS'63153'
p887
F0.0
sS'42097'
p888
F1.92971891977757e-12
sS'14028'
p889
F0.0
sS'41093'
p890
F2.12167464367649e-16
sS'24050'
p891
F0.0
sS'24052'
p892
F0.0
sS'24053'
p893
F0.0
sS'24054'
p894
F0.0
sS'54126'
p895
F4.60780280781394e-15
sS'54124'
p896
F8.14511843422159e-31
sS'65159'
p897
F0.0
sS'58144'
p898
F1.50071335903051e-10
sS'54129'
p899
F4.72047398088416e-14
sS'54128'
p900
F1.8449365534793e-09
sS'58141'
p901
F1.79860147244325e-08
sS'56138'
p902
F1.61164501358278e-05
sS'58143'
p903
F1.11205626767181e-11
sS'41094'
p904
F0.0
sS'20043'
p905
F5.0284767400961e-76
sS'20042'
p906
F4.76027769672772e-81
sS'34080'
p907
F0.0
sS'20040'
p908
F0.0
sS'41095'
p909
F1.3849393004855e-11
sS'20046'
p910
F0.0
sS'11023'
p911
F1.85765730382533e-118
sS'20044'
p912
F5.07017433160769e-86
sS'60145'
p913
F4.86056118053289e-12
sS'20048'
p914
F0.0
sS'67165'
p915
F0.0
sS'35079'
p916
F9.07888762329985e-18
sS'68164'
p917
F0.0
sS'92240'
p918
F0.0
sS'51123'
p919
F0.0
sS'59143'
p920
F1.09865062536428e-10
sS'68166'
p921
F0.0
sS'90234'
p922
F0.0
sS'5010'
p923
F0.0
sS'5011'
p924
F0.0
sS'65160'
p925
F0.0
sS'52126'
p926
F0.0
sS'52120'
p927
F0.0
sS'52123'
p928
F8.82724834533892e-44
sS'52122'
p929
F2.59669583409147e-49
sS'94237'
p930
F0.0
sS'94236'
p931
F0.0
sS'25055'
p932
F0.0
sS'52128'
p933
F0.0
sS'40092'
p934
F1.86472351933739e-07
sS'95244'
p935
F0.0
sS'40093'
p936
F3.66469953423494e-08
sS'54134'
p937
F2.1677217750648e-05
sS'54135'
p938
F3.02367240938593e-08
sS'54136'
p939
F1.82924189645058e-05
sS'54130'
p940
F1.66233678756326e-08
sS'9019'
p941
F0.0
sS'54132'
p942
F1.24586476272989e-05
sS'54133'
p943
F3.53504015756186e-07
sS'32072'
p944
F0.0
sS'39089'
p945
F7.16724173426475e-06
sS'93237'
p946
F0.0
sS'91233'
p947
F0.0
sS'93235'
p948
F0.0
sS'55137'
p949
F1.46933882230815e-05
sS'55136'
p950
F0.0
sS'55135'
p951
F1.89858499581553e-05
sS'55134'
p952
F0.0
sS'55133'
p953
F1.51013783349809e-05
sS'64154'
p954
F0.0
sS'56132'
p955
F0.0
sS'49115'
p956
F0.0
sS'56130'
p957
F0.0
sS'13027'
p958
F0.0
sS'56137'
p959
F1.62356955571807e-07
sS'31069'
p960
F0.0
sS'49113'
p961
F0.0
sS'90233'
p962
F0.0
sS'90232'
p963
F0.0
sS'45105'
p964
F0.0
sS'90230'
p965
F0.0
sS'45103'
p966
F0.0
sS'39091'
p967
F3.0231781549096e-07
sS'47310'
p968
F0.0
sS'52132'
p969
F0.0
sS'17035'
p970
F2.09198514014688e-120
sS'52130'
p971
F0.0
sS'17037'
p972
F1.25863852512202e-100
sS'92235'
p973
F0.0
sS'94239'
p974
F0.0
sS'61149'
p975
F0.0
sS'93239'
p976
F0.0
sS'16036'
p977
F0.0
sS'56133'
p978
F0.0
sS'95342'
p979
F0.0
sS'63156'
p980
F0.0
sS'95344'
p981
F0.0
sS'53130'
p982
F0.0
sS'51125'
p983
F0.0
sS'91231'
p984
F0.0
sS'91232'
p985
F0.0
sS'53129'
p986
F0.0
sS'96240'
p987
F0.0
sS'96241'
p988
F0.0
sS'96242'
p989
F0.0
sS'51121'
p990
F1.45578254858727e-63
sS'68168'
p991
F0.0
sS'16033'
p992
F0.0
sS'15031'
p993
F0.0
sS'90228'
p994
F1.04334273315847e-26
sS'90229'
p995
F1.10945471525655e-23
sS'19041'
p996
F3.16819923444689e-78
sS'19040'
p997
F0.0
sS'44104'
p998
F0.0
sS'44105'
p999
F0.0
sS'44106'
p1000
F0.0
sS'50119'
p1001
F0.0
sS'44100'
p1002
F1.26135609351367e-34
sS'44101'
p1003
F0.0
sS'44102'
p1004
F0.0
sS'16032'
p1005
F0.0
sS'50112'
p1006
F0.0
sS'31071'
p1007
F0.0
sS'52125'
p1008
F1.98733352461642e-20
sS'38089'
p1009
F1.68895025055925e-06
sS'1003'
p1010
F0.0
sS'1002'
p1011
F0.0
sS'1001'
p1012
F0.0
sS'50115'
p1013
F0.0
sS'96247'
p1014
F0.0
sS'14030'
p1015
F0.0
sS'63157'
p1016
F0.0
sS'52124'
p1017
F0.0
sS'62150'
p1018
F0.0
sS'59142'
p1019
F0.0
sS'3007'
p1020
F0.0
sS'3006'
p1021
F2.74350731331711e-08
sS'60150'
p1022
F0.0
sS'93238'
p1023
F0.0
sS'54123'
p1024
F9.55116065687501e-47
sS'32070'
p1025
F0.0
sS'7014'
p1026
F0.0
sS'7015'
p1027
F0.0
sS'32074'
p1028
F0.0
sS'32076'
p1029
F0.0
sS'50126'
p1030
F0.0
sS'50125'
p1031
F0.0
sS'50124'
p1032
F0.0
sS'50123'
p1033
F0.0
sS'50122'
p1034
F0.0
sS'33074'
p1035
F0.0
sS'33075'
p1036
F0.0
sS'68170'
p1037
F0.0
sS'94238'
p1038
F0.0
sS'37087'
p1039
F6.04587368123576e-06
sS'37086'
p1040
F0.0
sS'37085'
p1041
F2.43843382330724e-06
sS'30064'
p1042
F0.0
sS'38090'
p1043
F5.30536159027255e-06
sS'52329'
p1044
F0.0
sS'52327'
p1045
F0.0
sS'53135'
p1046
F0.0
sS'32073'
p1047
F0.0
sS'11022'
p1048
F0.0
sS'66156'
p1049
F0.0
sS'53131'
p1050
F0.0
sS'18040'
p1051
F7.66835766032292e-80
sS'96244'
p1052
F0.0
sS'56140'
p1053
F1.22628530162078e-07
sS'34077'
p1054
F1.65196726265198e-26
sS'34076'
p1055
F0.0
sS'34074'
p1056
F0.0
sS'34079'
p1057
F0.0
sS'34078'
p1058
F0.0
sS'96246'
p1059
F0.0
sS'12024'
p1060
F0.0
sS'12025'
p1061
F0.0
sS'12026'
p1062
F0.0
sS'22046'
p1063
F0.0
sS'60142'
p1064
F0.0
sS'60143'
p1065
F2.00905360135266e-09
sS'68162'
p1066
F0.0
sS'64158'
p1067
F0.0
sS'94244'
p1068
F0.0
sS'22049'
p1069
F0.0
sS'22048'
p1070
F0.0
sS'44098'
p1071
F0.0
sS'44099'
p1072
F7.09273504853767e-20
sS'50120'
p1073
F0.0
sS'95242'
p1074
F0.0
sS'96243'
p1075
F0.0
sS'56134'
p1076
F0.0
sS'38086'
p1077
F0.0
sS'38087'
p1078
F4.33237517131039e-17
sS'38084'
p1079
F0.0
sS'18036'
p1080
F1.70913114981639e-102
sS'48315'
p1081
F0.0
sS'53127'
p1082
F5.07046607102363e-18
sS'61147'
p1083
F1.09646247771851e-14
sS'51124'
p1084
F0.0
sS'28064'
p1085
F0.0
sS'51126'
p1086
F0.0
sS'16034'
p1087
F0.0
sS'28061'
p1088
F0.0
sS'28060'
p1089
F0.0
sS'38088'
p1090
F8.03082019011593e-06
sS'28062'
p1091
F0.0
sS'64156'
p1092
F0.0
sS'92233'
p1093
F0.0
sS'43099'
p1094
F2.09294156697742e-15
sS'62148'
p1095
F0.0
sS'92234'
p1096
F0.0
sS'96248'
p1097
F0.0
sS'50114'
p1098
F0.0
sS'56135'
p1099
F2.69977374512412e-12
sS'66162'
p1100
F0.0
sS'96249'
p1101
F0.0
sS'36080'
p1102
F1.67757003111774e-12
sS'47107'
p1103
F0.0
sS'6012'
p1104
F0.0
sS'39090'
p1105
F1.3325784753565e-09
sS'22050'
p1106
F0.0
sS'92239'
p1107
F0.0
sS'35081'
p1108
F1.43187525173036e-19
sS'93236'
p1109
F0.0
sS'36082'
p1110
F2.041931880768e-09
sS'36083'
p1111
F1.30633298895448e-06
sS'36084'
p1112
F2.40319976269721e-06
sS'18038'
p1113
F8.59087524458348e-86
sS'36086'
p1114
F4.43864891108865e-06
sS'42092'
p1115
F0.0
sS'4009'
p1116
F0.0
sS'62149'
p1117
F0.0
sS'94243'
p1118
F0.0
sS'90227'
p1119
F5.1446295980107e-30
sS'47109'
p1120
F0.0
sS'59141'
p1121
F1.26043052955816e-07
sS'66163'
p1122
F0.0
sS'50118'
p1123
F0.0
sS'36085'
p1124
F8.23432824993478e-07
sS'26058'
p1125
F0.0
sS'61151'
p1126
F0.0
sS'42094'
p1127
F0.0
sS'42095'
p1128
F6.50470305918877e-11
sS'42096'
p1129
F0.0
sS'19039'
p1130
F6.9576028511786e-88
sS'42098'
p1131
F3.58389785401127e-12
sS'42099'
p1132
F2.39468200301209e-17
sS'26056'
p1133
F0.0
sS'26057'
p1134
F0.0
sS'26054'
p1135
F0.0
sS'92238'
p1136
F0.0
sS'14029'
p1137
F0.0
sS'94240'
p1138
F0.0
sS'67366'
p1139
F0.0
sS'66160'
p1140
F0.0
sS'44103'
p1141
F0.0
sS'23051'
p1142
F0.0
sS'95241'
p1143
F0.0
sS'64160'
p1144
F0.0
sS'62154'
p1145
F0.0
sS'62153'
p1146
F0.0
sS'62152'
p1147
F0.0
sS'62151'
p1148
F0.0
sS'47111'
p1149
F0.0
sS'27059'
p1150
F0.0
sS'27058'
p1151
F0.0
sS'68167'
p1152
F0.0
sS'92237'
p1153
F0.0
sS'57139'
p1154
F6.78210304865279e-06
sS'44096'
p1155
F0.0
sS'94241'
p1156
F0.0
sS'92236'
p1157
F0.0
sS'60147'
p1158
F5.27731959728818e-16
sS'66161'
p1159
F0.0
sS'50116'
p1160
F0.0
sS'50113'
p1161
F0.0
sS'22047'
p1162
F0.0
sS'94242'
p1163
F0.0
sS'50117'
p1164
F0.0
sS'2003'
p1165
F1.90512787320818e-07
sS'66158'
p1166
F0.0
sS'29065'
p1167
F0.0
sS'58139'
p1168
F0.0
sS'29063'
p1169
F0.0
sS'2004'
p1170
F3.379983846701e-05
sS'92241'
p1171
F0.0
sS'92232'
p1172
F0.0
sS'57138'
p1173
F0.0
sS'36078'
p1174
F2.25007926692747e-19
sS'61148'
p1175
F0.0
ssg69
g70
sg441
g23
sg442
Nsbag0
(g87
g2
Ntp1176
Rp1177
(dp1178
g91
F0.0391733956149943
sg92
F0.0391733956149943
sg82
g93
sg94
I01
sg95
g96
sg97
F1000000.0
sg98
(dp1179
S'58138'
p1180
F7.14166435421228e-17
sS'48116'
p1181
F5.99879396954593e-10
sS'66164'
p1182
F2.03283674651963e-12
sS'48114'
p1183
F1.33722788402626e-09
sS'48113'
p1184
F6.48734934803642e-11
sS'48112'
p1185
F8.26409130599157e-10
sS'48111'
p1186
F1.92955117587249e-09
sS'21045'
p1187
F2.14445094169072e-72
sS'95243'
p1188
F7.1368466971661e-11
sS'63151'
p1189
F1.72980922218144e-11
sS'58136'
p1190
F3.69886625476392e-28
sS'60146'
p1191
F7.1407852208095e-08
sS'61348'
p1192
F6.19052714199687e-11
sS'62144'
p1193
F4.00580388699578e-24
sS'62147'
p1194
F6.77905398598098e-09
sS'8017'
p1195
F1.61130726947147e-11
sS'8016'
p1196
F3.07008475911083e-08
sS'40090'
p1197
F1.03544098015713e-09
sS'40091'
p1198
F8.86549967612985e-08
sS'40096'
p1199
F1.46850718915827e-07
sS'40094'
p1200
F1.45519629691954e-07
sS'40095'
p1201
F2.17252476980346e-08
sS'46102'
p1202
F1.52678264480839e-17
sS'96250'
p1203
F3.76630634549452e-30
sS'46106'
p1204
F1.10667026046615e-08
sS'46107'
p1205
F1.98711199455133e-08
sS'46104'
p1206
F3.62153106397153e-09
sS'46105'
p1207
F4.61097114630429e-08
sS'63154'
p1208
F3.29762082279855e-10
sS'63155'
p1209
F5.46644830210209e-10
sS'46108'
p1210
F1.21101024079243e-08
sS'48110'
p1211
F2.67181015449656e-10
sS'28058'
p1212
F2.40562767911211e-50
sS'28059'
p1213
F1.85203411115973e-42
sS'63152'
p1214
F5.52845763671402e-12
sS'58140'
p1215
F1.23405436416806e-07
sS'54131'
p1216
F4.4355814824833e-09
sS'64153'
p1217
F1.79219534955341e-12
sS'64152'
p1218
F3.29006290918016e-11
sS'64155'
p1219
F1.53621642802919e-10
sS'60148'
p1220
F4.12697665964636e-08
sS'64157'
p1221
F4.28171270384304e-11
sS'60144'
p1222
F5.53970499668646e-08
sS'57140'
p1223
F1.36700033574375e-10
sS'56136'
p1224
F5.73775664836182e-10
sS'58142'
p1225
F1.35041337933658e-07
sS'96245'
p1226
F1.88106997701414e-14
sS'34082'
p1227
F7.37784862638004e-09
sS'46110'
p1228
F3.87326682194898e-09
sS'42100'
p1229
F1.55483828388511e-07
sS'48106'
p1230
F3.77682296797064e-22
sS'48108'
p1231
F7.26315523066289e-16
sS'63153'
p1232
F6.12454476106404e-09
sS'42097'
p1233
F9.02249503583353e-08
sS'14028'
p1234
F1.3911559951239e-110
sS'41093'
p1235
F3.00306420536561e-15
sS'24050'
p1236
F6.97480320290276e-69
sS'24052'
p1237
F7.46045055209713e-51
sS'24053'
p1238
F6.95241257872006e-51
sS'24054'
p1239
F4.69400280114603e-45
sS'54126'
p1240
F5.3392478324742e-19
sS'54124'
p1241
F2.41226931529471e-38
sS'65159'
p1242
F1.32678778466622e-10
sS'58144'
p1243
F7.49375361173107e-08
sS'54129'
p1244
F1.67694905663913e-16
sS'54128'
p1245
F2.44641461936722e-15
sS'58141'
p1246
F6.1334662827241e-09
sS'56138'
p1247
F1.92415107750097e-08
sS'58143'
p1248
F1.14069608940164e-11
sS'41094'
p1249
F8.85033508884679e-14
sS'20043'
p1250
F7.3539590083651e-76
sS'20042'
p1251
F2.48814414742414e-80
sS'34080'
p1252
F2.93531736881275e-09
sS'20040'
p1253
F4.52219029957528e-102
sS'41095'
p1254
F1.67624469408973e-08
sS'20046'
p1255
F2.36673328673651e-67
sS'11023'
p1256
F8.10601007532921e-121
sS'20044'
p1257
F5.97454966460212e-72
sS'60145'
p1258
F8.51225280567796e-08
sS'20048'
p1259
F1.65870307853376e-73
sS'67165'
p1260
F1.34195800507742e-12
sS'35079'
p1261
F5.71184074175745e-13
sS'68164'
p1262
F2.06651852259156e-17
sS'92240'
p1263
F7.25585066430398e-17
sS'51123'
p1264
F5.36627861015158e-10
sS'59143'
p1265
F1.21500333141932e-09
sS'68166'
p1266
F1.61528243618707e-13
sS'90234'
p1267
F2.71011358539722e-14
sS'5010'
p1268
F7.84849437713994e-18
sS'5011'
p1269
F4.07712587367997e-18
sS'65160'
p1270
F5.78501343507939e-13
sS'52126'
p1271
F6.7506034135586e-11
sS'52120'
p1272
F2.26942581597968e-20
sS'52123'
p1273
F3.22305428787165e-15
sS'52122'
p1274
F1.33238586706898e-12
sS'94237'
p1275
F1.6626044325744e-16
sS'94236'
p1276
F1.51218645458326e-18
sS'25055'
p1277
F1.13749345236397e-42
sS'52128'
p1278
F9.68007966007681e-09
sS'40092'
p1279
F1.22439946738681e-07
sS'95244'
p1280
F1.43510516118524e-17
sS'40093'
p1281
F1.28247357559781e-07
sS'54134'
p1282
F1.75658388167066e-10
sS'54135'
p1283
F7.45770353856635e-13
sS'54136'
p1284
F2.28256782469708e-12
sS'54130'
p1285
F5.79509242622299e-13
sS'9019'
p1286
F0.0236280280048005
sS'54132'
p1287
F3.50016609319757e-09
sS'54133'
p1288
F2.53852398153255e-11
sS'32072'
p1289
F7.82613930161446e-13
sS'39089'
p1290
F1.80747112409438e-08
sS'93237'
p1291
F5.90567499170015e-09
sS'91233'
p1292
F1.91712703085694e-16
sS'93235'
p1293
F1.77336758673202e-18
sS'55137'
p1294
F2.32303880437044e-08
sS'55136'
p1295
F3.51274086870863e-12
sS'55135'
p1296
F8.37443922497004e-10
sS'55134'
p1297
F2.95853326226031e-12
sS'55133'
p1298
F1.38784524757963e-09
sS'64154'
p1299
F4.20892804353501e-10
sS'56132'
p1300
F1.92463283265958e-17
sS'49115'
p1301
F2.76986236370998e-10
sS'56130'
p1302
F1.44877294181799e-27
sS'13027'
p1303
F8.80428625608853e-111
sS'56137'
p1304
F3.44163350823462e-10
sS'31069'
p1305
F1.41476075603852e-13
sS'49113'
p1306
F3.94762412793129e-15
sS'90233'
p1307
F6.59613539083666e-25
sS'90232'
p1308
F7.20478639300311e-15
sS'45105'
p1309
F7.28483692163098e-12
sS'90230'
p1310
F4.29304098186432e-17
sS'45103'
p1311
F8.38603680956646e-08
sS'39091'
p1312
F1.2524647549726e-08
sS'47310'
p1313
F8.67638372387174e-12
sS'52132'
p1314
F5.27633686217373e-11
sS'17035'
p1315
F8.25116455089257e-95
sS'52130'
p1316
F4.64110848507002e-08
sS'17037'
p1317
F1.65805205615238e-89
sS'92235'
p1318
F2.54096757650917e-05
sS'94239'
p1319
F1.45651024985254e-06
sS'61149'
p1320
F6.9698235804022e-12
sS'93239'
p1321
F5.43137158864433e-10
sS'16036'
p1322
F5.53473013531183e-88
sS'56133'
p1323
F1.46501350882897e-17
sS'95342'
p1324
F3.24668422424659e-12
sS'63156'
p1325
F3.33032299263227e-11
sS'95344'
p1326
F4.01732728078768e-19
sS'53130'
p1327
F2.97106686222879e-15
sS'51125'
p1328
F1.17598941308482e-09
sS'91231'
p1329
F1.82281248978115e-14
sS'91232'
p1330
F1.32509933239329e-19
sS'53129'
p1331
F1.68410065955422e-08
sS'96240'
p1332
F1.28113006721009e-22
sS'96241'
p1333
F7.43010384299938e-20
sS'96242'
p1334
F3.37568262655771e-11
sS'51121'
p1335
F4.0133124515326e-10
sS'68168'
p1336
F1.07701527882139e-13
sS'16033'
p1337
F7.29845207842717e-98
sS'15031'
p1338
F5.48579706582854e-104
sS'90228'
p1339
F2.9499169990053e-18
sS'90229'
p1340
F9.86763424188669e-20
sS'19041'
p1341
F1.25379275763121e-82
sS'19040'
p1342
F5.73244536756478e-92
sS'44104'
p1343
F6.81018474651878e-08
sS'44105'
p1344
F1.0841603234117e-13
sS'44106'
p1345
F2.16955459426128e-08
sS'50119'
p1346
F5.10067692956829e-10
sS'44100'
p1347
F1.67096259799753e-09
sS'44101'
p1348
F1.29599755907981e-07
sS'44102'
p1349
F1.14927454786917e-07
sS'16032'
p1350
F6.41375725193448e-102
sS'50112'
p1351
F2.15416451625294e-20
sS'31071'
p1352
F5.68073241698159e-13
sS'52125'
p1353
F1.30305544700989e-10
sS'38089'
p1354
F1.9551988850748e-09
sS'1003'
p1355
F6.02233602481165e-08
sS'1002'
p1356
F1.05761389545068e-10
sS'1001'
p1357
F1.303226211226e-12
sS'50115'
p1358
F1.49303937160441e-11
sS'96247'
p1359
F2.19150528827174e-19
sS'14030'
p1360
F3.07508018760054e-102
sS'63157'
p1361
F1.54966195432458e-14
sS'52124'
p1362
F1.70974620361368e-12
sS'62150'
p1363
F2.53576728260119e-08
sS'59142'
p1364
F1.90435470850873e-14
sS'3007'
p1365
F0.0111914891519538
sS'3006'
p1366
F5.07402341767982e-07
sS'60150'
p1367
F1.78070982805619e-08
sS'93238'
p1368
F2.02668355446225e-13
sS'54123'
p1369
F3.72467014502198e-54
sS'32070'
p1370
F1.99041365580931e-16
sS'7014'
p1371
F1.85416323998911e-17
sS'7015'
p1372
F8.30531051312982e-09
sS'32074'
p1373
F1.07299230408781e-11
sS'32076'
p1374
F7.65844675339016e-11
sS'50126'
p1375
F2.19943735170242e-09
sS'50125'
p1376
F4.21273330651183e-12
sS'50124'
p1377
F1.03700865009554e-09
sS'50123'
p1378
F1.06775814235237e-10
sS'50122'
p1379
F5.80939591007342e-10
sS'33074'
p1380
F8.41167528459091e-19
sS'33075'
p1381
F2.83435401696815e-11
sS'68170'
p1382
F1.42718639944492e-14
sS'94238'
p1383
F2.93526495896986e-10
sS'37087'
p1384
F5.2969196998558e-10
sS'37086'
p1385
F2.68501873649248e-14
sS'37085'
p1386
F9.35372191394902e-11
sS'30064'
p1387
F5.73845242193232e-25
sS'38090'
p1388
F7.19462656002674e-08
sS'52329'
p1389
F3.44032365798553e-13
sS'52327'
p1390
F2.78817131229957e-11
sS'53135'
p1391
F5.35488119544112e-13
sS'32073'
p1392
F3.79596485979071e-12
sS'11022'
p1393
F5.59393664356606e-131
sS'66156'
p1394
F3.38701950528171e-21
sS'53131'
p1395
F2.2579025083121e-10
sS'18040'
p1396
F2.96345491725451e-87
sS'96244'
p1397
F2.2959619144895e-12
sS'56140'
p1398
F9.17536233915188e-10
sS'34077'
p1399
F1.13961544590953e-10
sS'34076'
p1400
F9.78643243093533e-14
sS'34074'
p1401
F1.14217932590842e-17
sS'34079'
p1402
F1.07537496730635e-09
sS'34078'
p1403
F4.88982206919631e-10
sS'96246'
p1404
F1.89508260698757e-16
sS'12024'
p1405
F1.18203752340283e-118
sS'12025'
p1406
F1.70096601976877e-117
sS'12026'
p1407
F1.54670863770395e-112
sS'22046'
p1408
F2.5352108040333e-73
sS'60142'
p1409
F2.27361164308938e-10
sS'60143'
p1410
F1.29259047856726e-07
sS'68162'
p1411
F2.30010349863924e-21
sS'64158'
p1412
F8.53593060672438e-09
sS'94244'
p1413
F4.04673883011138e-15
sS'22049'
p1414
F3.82939370086032e-59
sS'22048'
p1415
F1.09600809607294e-61
sS'44098'
p1416
F2.21772693354286e-18
sS'44099'
p1417
F4.82773980834882e-12
sS'50120'
p1418
F4.95016049348362e-10
sS'95242'
p1419
F1.00379600128335e-14
sS'96243'
p1420
F1.0613263776222e-13
sS'56134'
p1421
F5.15899134352543e-13
sS'38086'
p1422
F1.0365033795748e-12
sS'38087'
p1423
F1.68782579254639e-13
sS'38084'
p1424
F1.98344712328265e-18
sS'18036'
p1425
F2.63607323605197e-106
sS'48315'
p1426
F3.14319229846379e-12
sS'53127'
p1427
F2.02837007565473e-09
sS'61147'
p1428
F4.4222868771605e-08
sS'51124'
p1429
F4.63924371693194e-13
sS'28064'
p1430
F1.26921660336158e-24
sS'51126'
p1431
F4.05212266880714e-13
sS'16034'
p1432
F1.87552996870307e-97
sS'28061'
p1433
F1.50015380816967e-27
sS'28060'
p1434
F4.94701543128692e-34
sS'38088'
p1435
F9.51431807558857e-10
sS'28062'
p1436
F6.11668656805051e-26
sS'64156'
p1437
F8.4751238213639e-09
sS'92233'
p1438
F1.87265442836222e-14
sS'43099'
p1439
F1.40484004147276e-07
sS'62148'
p1440
F2.201316592351e-09
sS'92234'
p1441
F2.68526277502211e-11
sS'96248'
p1442
F1.54896831005254e-21
sS'50114'
p1443
F5.83255010445887e-17
sS'56135'
p1444
F5.50307940663464e-14
sS'66162'
p1445
F1.16677243705565e-11
sS'96249'
p1446
F1.22407153434836e-29
sS'36080'
p1447
F1.65579049679709e-17
sS'47107'
p1448
F1.06367493021352e-15
sS'6012'
p1449
F1.65324257974622e-16
sS'39090'
p1450
F1.82474219874876e-11
sS'22050'
p1451
F2.50977775287542e-58
sS'92239'
p1452
F2.5747844182432e-14
sS'35081'
p1453
F4.78317886202014e-09
sS'93236'
p1454
F1.19140852834059e-15
sS'36082'
p1455
F1.38311464540155e-13
sS'36083'
p1456
F2.05179763226121e-11
sS'36084'
p1457
F8.17224922487117e-12
sS'18038'
p1458
F6.98346437798609e-93
sS'36086'
p1459
F7.17777886585198e-13
sS'42092'
p1460
F1.87430861259821e-22
sS'4009'
p1461
F0.00248709181814456
sS'62149'
p1462
F2.18988182009722e-09
sS'94243'
p1463
F1.12702941205404e-15
sS'90227'
p1464
F8.22356015471031e-24
sS'47109'
p1465
F6.97461648875365e-09
sS'59141'
p1466
F1.26009526588966e-07
sS'66163'
p1467
F5.55030948647551e-12
sS'50118'
p1468
F4.94766765045343e-10
sS'36085'
p1469
F2.96703494015221e-13
sS'26058'
p1470
F2.99572188471012e-34
sS'61151'
p1471
F8.62207147175764e-13
sS'42094'
p1472
F1.49345472097374e-14
sS'42095'
p1473
F1.09111959581087e-07
sS'42096'
p1474
F4.21352359226654e-10
sS'19039'
p1475
F3.08526216697234e-94
sS'42098'
p1476
F1.40341871693812e-07
sS'42099'
p1477
F5.16532379242771e-11
sS'26056'
p1478
F2.0614752620979e-43
sS'26057'
p1479
F5.44408429279016e-41
sS'26054'
p1480
F3.18199364267447e-58
sS'92238'
p1481
F0.0018354354100049
sS'14029'
p1482
F1.68744979431116e-106
sS'94240'
p1483
F2.26479574476294e-07
sS'67366'
p1484
F7.91135410451244e-16
sS'66160'
p1485
F1.27491436560224e-12
sS'44103'
p1486
F6.97933734384647e-09
sS'23051'
p1487
F5.50985838603646e-53
sS'95241'
p1488
F9.39792157947118e-10
sS'64160'
p1489
F4.24081390571584e-09
sS'62154'
p1490
F2.84246099272534e-09
sS'62153'
p1491
F1.77978575680484e-12
sS'62152'
p1492
F1.37675284261348e-08
sS'62151'
p1493
F5.25259923381573e-09
sS'47111'
p1494
F7.76383933089854e-12
sS'27059'
p1495
F1.27160780378065e-35
sS'27058'
p1496
F5.5413561293758e-44
sS'68167'
p1497
F9.99674968153661e-14
sS'92237'
p1498
F2.31219836680215e-11
sS'57139'
p1499
F9.00044206319892e-08
sS'44096'
p1500
F1.7914675374324e-29
sS'94241'
p1501
F4.94286091643861e-08
sS'92236'
p1502
F3.96581376549538e-07
sS'60147'
p1503
F2.8957937566161e-10
sS'66161'
p1504
F7.91892610441945e-12
sS'50116'
p1505
F3.93016986880628e-11
sS'50113'
p1506
F2.23201401360065e-22
sS'22047'
p1507
F5.04468892704595e-65
sS'94242'
p1508
F3.09796427542821e-09
sS'50117'
p1509
F5.30964124989587e-10
sS'2003'
p1510
F8.4665647054098e-10
sS'66158'
p1511
F9.27699420434e-19
sS'29065'
p1512
F4.20793869963872e-17
sS'58139'
p1513
F7.47311379521597e-15
sS'29063'
p1514
F1.35628135025314e-32
sS'2004'
p1515
F2.62094122509356e-11
sS'92241'
p1516
F7.02611673685405e-25
sS'92232'
p1517
F7.20947273064733e-16
sS'57138'
p1518
F8.930157625647e-13
sS'36078'
p1519
F7.3025371036886e-26
sS'61148'
p1520
F5.64704680209952e-12
ssg69
g70
sg441
g18
sg442
Nsbag0
(g87
g2
Ntp1521
Rp1522
(dp1523
g91
F0.0199571324397995
sg92
F0.0199571324397995
sg82
g93
sg94
I01
sg95
g96
sg97
F1000000.0
sg98
(dp1524
S'58138'
p1525
F0.0
sS'48116'
p1526
F0.0
sS'66164'
p1527
F0.0
sS'48114'
p1528
F0.0
sS'48113'
p1529
F0.0
sS'48112'
p1530
F0.0
sS'48111'
p1531
F0.0
sS'21045'
p1532
F0.0
sS'95243'
p1533
F0.0
sS'63151'
p1534
F0.0
sS'58136'
p1535
F0.0
sS'60146'
p1536
F0.0
sS'61348'
p1537
F0.0
sS'62144'
p1538
F0.0
sS'62147'
p1539
F0.0
sS'8017'
p1540
F0.0
sS'8016'
p1541
F0.0
sS'40090'
p1542
F0.0
sS'40091'
p1543
F0.0
sS'40096'
p1544
F0.0
sS'40094'
p1545
F0.0
sS'40095'
p1546
F0.0
sS'46102'
p1547
F0.0
sS'96250'
p1548
F0.0
sS'46106'
p1549
F0.0
sS'46107'
p1550
F0.0
sS'46104'
p1551
F0.0
sS'46105'
p1552
F0.0
sS'63154'
p1553
F0.0
sS'63155'
p1554
F0.0
sS'46108'
p1555
F0.0
sS'48110'
p1556
F0.0
sS'28058'
p1557
F0.0
sS'28059'
p1558
F0.0
sS'63152'
p1559
F0.0
sS'58140'
p1560
F2.64940410057345e-52
sS'54131'
p1561
F0.0
sS'64153'
p1562
F0.0
sS'64152'
p1563
F9.97856622042599e-06
sS'64155'
p1564
F0.000738413900287447
sS'60148'
p1565
F0.0
sS'64157'
p1566
F0.000780822806723472
sS'60144'
p1567
F2.79624719011611e-36
sS'57140'
p1568
F0.0
sS'56136'
p1569
F0.0
sS'58142'
p1570
F0.0
sS'96245'
p1571
F0.0
sS'34082'
p1572
F0.0
sS'46110'
p1573
F0.0
sS'42100'
p1574
F0.0
sS'48106'
p1575
F0.0
sS'48108'
p1576
F0.0
sS'63153'
p1577
F0.0
sS'42097'
p1578
F0.0
sS'14028'
p1579
F0.0
sS'41093'
p1580
F0.0
sS'24050'
p1581
F0.0
sS'24052'
p1582
F0.0
sS'24053'
p1583
F0.0
sS'24054'
p1584
F0.0
sS'54126'
p1585
F0.0
sS'54124'
p1586
F0.0
sS'65159'
p1587
F0.0
sS'58144'
p1588
F0.0
sS'54129'
p1589
F0.0
sS'54128'
p1590
F0.0
sS'58141'
p1591
F0.0
sS'56138'
p1592
F0.0
sS'58143'
p1593
F0.0
sS'41094'
p1594
F0.0
sS'20043'
p1595
F0.0
sS'20042'
p1596
F0.0
sS'34080'
p1597
F0.0
sS'20040'
p1598
F0.0
sS'41095'
p1599
F0.0
sS'20046'
p1600
F0.0
sS'11023'
p1601
F0.0
sS'20044'
p1602
F0.0
sS'60145'
p1603
F0.0
sS'20048'
p1604
F0.0
sS'67165'
p1605
F0.0
sS'35079'
p1606
F0.0
sS'68164'
p1607
F0.0
sS'92240'
p1608
F0.0
sS'51123'
p1609
F0.0
sS'59143'
p1610
F0.0
sS'68166'
p1611
F0.0
sS'90234'
p1612
F0.0
sS'5010'
p1613
F0.0
sS'5011'
p1614
F0.0
sS'65160'
p1615
F0.0
sS'52126'
p1616
F0.0
sS'52120'
p1617
F0.0
sS'52123'
p1618
F0.0
sS'52122'
p1619
F0.0
sS'94237'
p1620
F0.0
sS'94236'
p1621
F0.0
sS'25055'
p1622
F0.0
sS'52128'
p1623
F0.0
sS'40092'
p1624
F0.0
sS'95244'
p1625
F0.0
sS'40093'
p1626
F0.0
sS'54134'
p1627
F0.0
sS'54135'
p1628
F0.0
sS'54136'
p1629
F0.0
sS'54130'
p1630
F0.0
sS'9019'
p1631
F0.0149678493298091
sS'54132'
p1632
F0.0
sS'54133'
p1633
F0.0
sS'32072'
p1634
F0.0
sS'39089'
p1635
F0.0
sS'93237'
p1636
F0.0
sS'91233'
p1637
F0.0
sS'93235'
p1638
F0.0
sS'55137'
p1639
F0.0
sS'55136'
p1640
F0.0
sS'55135'
p1641
F0.0
sS'55134'
p1642
F0.0
sS'55133'
p1643
F0.0
sS'64154'
p1644
F0.000108766371797066
sS'56132'
p1645
F0.0
sS'49115'
p1646
F0.0
sS'56130'
p1647
F0.0
sS'13027'
p1648
F0.0
sS'56137'
p1649
F0.0
sS'31069'
p1650
F0.0
sS'49113'
p1651
F0.0
sS'90233'
p1652
F0.0
sS'90232'
p1653
F0.0
sS'45105'
p1654
F0.0
sS'90230'
p1655
F0.0
sS'45103'
p1656
F0.0
sS'39091'
p1657
F0.0
sS'47310'
p1658
F0.0
sS'52132'
p1659
F0.0
sS'17035'
p1660
F0.0
sS'52130'
p1661
F0.0
sS'17037'
p1662
F0.0
sS'92235'
p1663
F0.0
sS'94239'
p1664
F0.0
sS'61149'
p1665
F0.0
sS'93239'
p1666
F0.0
sS'16036'
p1667
F0.0
sS'56133'
p1668
F0.0
sS'95342'
p1669
F0.0
sS'63156'
p1670
F0.0
sS'95344'
p1671
F0.0
sS'53130'
p1672
F0.0
sS'51125'
p1673
F0.0
sS'91231'
p1674
F0.0
sS'91232'
p1675
F0.0
sS'53129'
p1676
F0.0
sS'96240'
p1677
F0.0
sS'96241'
p1678
F0.0
sS'96242'
p1679
F0.0
sS'51121'
p1680
F0.0
sS'68168'
p1681
F0.0
sS'16033'
p1682
F0.0
sS'15031'
p1683
F0.0
sS'90228'
p1684
F0.0
sS'90229'
p1685
F0.0
sS'19041'
p1686
F0.0
sS'19040'
p1687
F0.0
sS'44104'
p1688
F0.0
sS'44105'
p1689
F0.0
sS'44106'
p1690
F0.0
sS'50119'
p1691
F0.0
sS'44100'
p1692
F0.0
sS'44101'
p1693
F0.0
sS'44102'
p1694
F0.0
sS'16032'
p1695
F0.0
sS'50112'
p1696
F0.0
sS'31071'
p1697
F0.0
sS'52125'
p1698
F0.0
sS'38089'
p1699
F0.0
sS'1003'
p1700
F0.0
sS'1002'
p1701
F0.0
sS'1001'
p1702
F0.0
sS'50115'
p1703
F0.0
sS'96247'
p1704
F0.0
sS'14030'
p1705
F0.0
sS'63157'
p1706
F0.0
sS'52124'
p1707
F0.0
sS'62150'
p1708
F0.0
sS'59142'
p1709
F0.0
sS'3007'
p1710
F0.0
sS'3006'
p1711
F0.0
sS'60150'
p1712
F0.0
sS'93238'
p1713
F0.0
sS'54123'
p1714
F0.0
sS'32070'
p1715
F0.0
sS'7014'
p1716
F0.0
sS'7015'
p1717
F0.0
sS'32074'
p1718
F0.0
sS'32076'
p1719
F0.0
sS'50126'
p1720
F0.0
sS'50125'
p1721
F0.0
sS'50124'
p1722
F0.0
sS'50123'
p1723
F0.0
sS'50122'
p1724
F0.0
sS'33074'
p1725
F0.0
sS'33075'
p1726
F0.0
sS'68170'
p1727
F0.0
sS'94238'
p1728
F0.0
sS'37087'
p1729
F0.0
sS'37086'
p1730
F0.0
sS'37085'
p1731
F0.0
sS'30064'
p1732
F0.0
sS'38090'
p1733
F0.0
sS'52329'
p1734
F0.0
sS'52327'
p1735
F0.0
sS'53135'
p1736
F0.0
sS'32073'
p1737
F0.0
sS'11022'
p1738
F0.0
sS'66156'
p1739
F0.0
sS'53131'
p1740
F0.0
sS'18040'
p1741
F0.0
sS'96244'
p1742
F0.0
sS'56140'
p1743
F0.0
sS'34077'
p1744
F0.0
sS'34076'
p1745
F0.0
sS'34074'
p1746
F0.0
sS'34079'
p1747
F0.0
sS'34078'
p1748
F0.0
sS'96246'
p1749
F0.0
sS'12024'
p1750
F0.0
sS'12025'
p1751
F0.0
sS'12026'
p1752
F0.0
sS'22046'
p1753
F0.0
sS'60142'
p1754
F0.0
sS'60143'
p1755
F0.0
sS'68162'
p1756
F0.0
sS'64158'
p1757
F0.00123933792451074
sS'94244'
p1758
F0.0
sS'22049'
p1759
F0.0
sS'22048'
p1760
F0.0
sS'44098'
p1761
F0.0
sS'44099'
p1762
F0.0
sS'50120'
p1763
F0.0
sS'95242'
p1764
F0.0
sS'96243'
p1765
F0.0
sS'56134'
p1766
F0.0
sS'38086'
p1767
F0.0
sS'38087'
p1768
F0.0
sS'38084'
p1769
F0.0
sS'18036'
p1770
F0.0
sS'48315'
p1771
F0.0
sS'53127'
p1772
F0.0
sS'61147'
p1773
F0.0
sS'51124'
p1774
F0.0
sS'28064'
p1775
F0.0
sS'51126'
p1776
F0.0
sS'16034'
p1777
F0.0
sS'28061'
p1778
F0.0
sS'28060'
p1779
F0.0
sS'38088'
p1780
F0.0
sS'28062'
p1781
F0.0
sS'64156'
p1782
F0.00102130625261062
sS'92233'
p1783
F0.0
sS'43099'
p1784
F0.0
sS'62148'
p1785
F6.01414433583108e-20
sS'92234'
p1786
F0.0
sS'96248'
p1787
F0.0
sS'50114'
p1788
F0.0
sS'56135'
p1789
F0.0
sS'66162'
p1790
F0.0
sS'96249'
p1791
F0.0
sS'36080'
p1792
F0.0
sS'47107'
p1793
F0.0
sS'6012'
p1794
F0.0
sS'39090'
p1795
F0.0
sS'22050'
p1796
F0.0
sS'92239'
p1797
F0.0
sS'35081'
p1798
F0.0
sS'93236'
p1799
F0.0
sS'36082'
p1800
F0.0
sS'36083'
p1801
F0.0
sS'36084'
p1802
F0.0
sS'18038'
p1803
F0.0
sS'36086'
p1804
F0.0
sS'42092'
p1805
F0.0
sS'4009'
p1806
F0.0
sS'62149'
p1807
F0.0
sS'94243'
p1808
F0.0
sS'90227'
p1809
F0.0
sS'47109'
p1810
F0.0
sS'59141'
p1811
F0.0
sS'66163'
p1812
F0.0
sS'50118'
p1813
F0.0
sS'36085'
p1814
F0.0
sS'26058'
p1815
F0.0
sS'61151'
p1816
F0.0
sS'42094'
p1817
F0.0
sS'42095'
p1818
F0.0
sS'42096'
p1819
F0.0
sS'19039'
p1820
F0.0
sS'42098'
p1821
F0.0
sS'42099'
p1822
F0.0
sS'26056'
p1823
F0.0
sS'26057'
p1824
F0.0
sS'26054'
p1825
F0.0
sS'92238'
p1826
F0.0
sS'14029'
p1827
F0.0
sS'94240'
p1828
F0.0
sS'67366'
p1829
F0.0
sS'66160'
p1830
F0.0
sS'44103'
p1831
F0.0
sS'23051'
p1832
F0.0
sS'95241'
p1833
F0.0
sS'64160'
p1834
F0.00109065728784066
sS'62154'
p1835
F0.0
sS'62153'
p1836
F0.0
sS'62152'
p1837
F0.0
sS'62151'
p1838
F0.0
sS'47111'
p1839
F0.0
sS'27059'
p1840
F0.0
sS'27058'
p1841
F0.0
sS'68167'
p1842
F0.0
sS'92237'
p1843
F0.0
sS'57139'
p1844
F0.0
sS'44096'
p1845
F0.0
sS'94241'
p1846
F0.0
sS'92236'
p1847
F0.0
sS'60147'
p1848
F0.0
sS'66161'
p1849
F0.0
sS'50116'
p1850
F0.0
sS'50113'
p1851
F0.0
sS'22047'
p1852
F0.0
sS'94242'
p1853
F0.0
sS'50117'
p1854
F0.0
sS'2003'
p1855
F0.0
sS'66158'
p1856
F0.0
sS'29065'
p1857
F0.0
sS'58139'
p1858
F0.0
sS'29063'
p1859
F0.0
sS'2004'
p1860
F6.01414433583108e-20
sS'92241'
p1861
F0.0
sS'92232'
p1862
F0.0
sS'57138'
p1863
F0.0
sS'36078'
p1864
F0.0
sS'61148'
p1865
F0.0
ssg69
g70
sg441
g16
sg442
NsbasS'betaEff'
p1866
F0.00502586
sS'maxdamageflux'
p1867
F280661000000000.0
sb.