ccopy_reg
_reconstructor
p0
(cRefuelCore
SerpentInputFile
p1
c__builtin__
object
p2
Ntp3
Rp4
(dp5
S'convratio'
p6
F0.688145
sS'geometry_name'
p7
S'MSRs2_geom.inp'
p8
sS'PowerNormalization'
p9
S'set power 300000000.0\n\n'
p10
sS'volumetricflows'
p11
(lp12
(S'refuel'
p13
S'fuel'
p14
F0.0
tp15
a(S'absorbertank'
p16
g14
F-0.0
tp17
a(S'Umetal'
p18
g14
F9.795990435763981e-11
tp19
a(g14
S'excessfueltank'
p20
F6.000055392009299e-12
tp21
asS'num_skipped_cycles'
p22
I100
sS'ratioflows'
p23
(lp24
(g14
S'offgastank'
p25
(lp26
S'Xe'
p27
aS'Kr'
p28
aS'Ar'
p29
aS'Ne'
p30
aS'He'
p31
aS'Ra'
p32
aF0.02
tp33
asS'pitch'
p34
F34.0
sS'OffGasRate'
p35
NsS'convratiolist'
p36
(lp37
F0.687798
aF0.688145
asS'AbsorberAdditionRate'
p38
NsS'core_size'
p39
S'4m'
p40
sS'job_done'
p41
I00
sS'salt_type'
p42
S'dflibe'
p43
sS'num_particles'
p44
I10000
sS'salt_fraction'
p45
F0.225
sS'PPN'
p46
I8
sS'num_nodes'
p47
I15
sS'submitted_once'
p48
I01
sS'refuelenrichment'
p49
F0.2
sS'initial_enrichment'
p50
F0.012097
sS'keff'
p51
F1.0015
sS'power'
p52
F300000000.0
sS'tmp_or_tms'
p53
S'tmp'
p54
sS'BurnTime'
p55
(lp56
S'7.0'
p57
asS'inputfilename'
p58
S'FLiBe4mcore'
p59
sS'num_cycles'
p60
I500
sS'directory'
p61
S'.'
p62
sS'fuelvolume'
p63
F16326492.8354819
sS'pmem'
p64
NsS'case'
p65
I1
sS'xslibfiles'
p66
S'set acelib "sss_endfb7u.xsdata"\nset nfylib "sss_endfb7.nfy"\nset declib "sss_endfb7.dec"\n\n'
p67
sS'kefflist'
p68
(lp69
F1.0015
asS'RefuelRate'
p70
NsS'queue'
p71
S'gen5'
p72
sS'tempK'
p73
I900
sS'betalist'
p74
(lp75
F0.0067665
aF0.00670917
aF0.00666851
aF0.00664991
aF0.00642921
aF0.00637247
aF0.00649976
aF0.00639876
aF0.00648714
aF0.00632865
aF0.00638188
aF0.00626149
aF0.00621731
aF0.00625621
aF0.0061606
aF0.00607957
aF0.00605367
aF0.00610563
aF0.00603786
aF0.0059885
aF0.00604326
aF0.00604933
aF0.00590005
aF0.00595726
aF0.0058871
aF0.00587757
aF0.00583728
aF0.00586781
aF0.00579108
aF0.00576067
aF0.00593221
aF0.00575143
aF0.0058246
aF0.00572633
aF0.00559704
aF0.00560321
aF0.00573609
aF0.00567096
aF0.00563312
aF0.00559211
aF0.00559283
aF0.00556039
aF0.00550789
aF0.0055175
aF0.00548231
aF0.00544728
aF0.00553589
aF0.00548673
aF0.00543923
aF0.00544572
aF0.00549269
aF0.00544442
aF0.00538791
aF0.00534947
aF0.00540792
aF0.00533609
aF0.00533938
aF0.005315
aF0.00539296
aF0.00534533
aF0.00524701
aF0.00533648
aF0.00524881
aF0.00526773
aF0.00532948
aF0.00536843
aF0.00517358
aF0.00524445
aF0.00516799
aF0.00528051
aF0.00527037
aF0.00523044
aF0.005261
aF0.00525409
aF0.00508177
aF0.00522102
aF0.00519488
aF0.00518978
aF0.00523515
aF0.00519435
aF0.00525383
aF0.00523271
aF0.00508984
aF0.00507805
aF0.00510997
aF0.00511181
aF0.00516338
aF0.00507672
aF0.00515218
aF0.00506159
aF0.00508098
aF0.00512438
aF0.0051166
aF0.00507344
aF0.00511383
aF0.00510113
aF0.00504073
aF0.00501075
aF0.00510361
aF0.00504834
aF0.00500955
aF0.00504923
aF0.00500899
aF0.00503671
aF0.00498187
aF0.00504636
aF0.00515299
aF0.00497307
aF0.0050426
aF0.00502715
aF0.00502517
aF0.00497559
aF0.00497641
aF0.0049586
aF0.00501999
aF0.00492448
aF0.00502829
aF0.00495252
aF0.00503067
aF0.00507498
aF0.00501044
aF0.0050326
aF0.00496666
aF0.00495583
aF0.00495851
aF0.00502419
aF0.00497502
aF0.00488567
aF0.00498962
aF0.00497641
aF0.00482308
aF0.00501086
aF0.00494746
aF0.00495298
aF0.00492591
aF0.00485871
aF0.00485256
aF0.00497822
aF0.00490061
aF0.00494485
aF0.00490986
aF0.00494412
aF0.00501553
aF0.00494067
aF0.004865
aF0.00495927
aF0.00498102
aF0.00505348
aF0.00484795
aF0.00495496
aF0.00486981
aF0.00494734
aF0.00487816
aF0.00501681
aF0.00484419
aF0.00489584
aF0.00493636
aF0.00505363
aF0.00484203
aF0.00484187
aF0.00489441
aF0.00485752
aF0.00490104
aF0.00480913
aF0.00487283
aF0.00490081
aF0.00490567
aF0.0049015
aF0.00493648
aF0.00491103
aF0.00496472
aF0.00489687
aF0.00487592
aF0.0049429
aF0.00484379
aF0.00495572
aF0.00479215
aF0.00480909
aF0.00492098
aF0.00482397
aF0.0049344
aF0.00478505
aF0.00494476
aF0.00476781
aF0.00491259
aF0.00490173
aF0.0047697
aF0.00479511
aF0.00487972
aF0.00487035
aF0.00478937
aF0.00473094
aF0.00475505
aF0.00486426
aF0.00478606
aF0.00492124
aF0.00484591
aF0.00487022
aF0.00486756
aF0.00483325
aF0.00490183
aF0.00485082
aF0.00488256
aF0.00481498
aF0.00483798
aF0.00485581
aF0.00482088
aF0.0048775
aF0.00473905
aF0.00491227
aF0.00485426
aF0.00478271
aF0.00491847
aF0.00477086
aF0.0048877
aF0.00487029
aF0.00479044
aF0.00486186
aF0.00472734
aF0.00485259
aF0.00480998
aF0.00486721
aF0.0048834
aF0.00476926
aF0.00468843
aF0.00473574
aF0.00482519
aF0.00475946
aF0.00473719
aF0.00482581
aF0.0048724
aF0.00480974
aF0.00483015
aF0.00476087
aF0.0047529
aF0.00478313
aF0.00477861
aF0.00486433
aF0.00477507
aF0.0048265
aF0.00479613
aF0.00480935
aF0.00485402
aF0.00477017
aF0.00481157
aF0.00465355
aF0.00475196
aF0.00479991
aF0.00484814
aF0.00480825
aF0.00476715
aF0.00475218
aF0.00471196
aF0.00478961
aF0.00478342
aF0.00485174
aF0.00487171
aF0.00478343
aF0.00489637
aF0.00470457
aF0.00481027
aF0.00481393
aF0.00483797
aF0.00485565
aF0.00483573
aF0.00480097
aF0.00479327
aF0.00473761
aF0.00478258
aF0.00481261
aF0.00487084
aF0.0048572
aF0.00485637
aF0.00479086
aF0.004775
aF0.00484959
aF0.00482486
aF0.00488776
aF0.00481694
aF0.00474858
aF0.00481394
aF0.00488386
aF0.00482091
aF0.00472254
aF0.00481407
aF0.00478552
aF0.00485581
aF0.00481157
aF0.00475915
aF0.00475864
aF0.00480036
aF0.00477899
aF0.00475817
aF0.00478573
aF0.00487633
aF0.00478757
aF0.00482152
aF0.00478816
aF0.0048275
aF0.0046921
aF0.00482334
aF0.00488067
aF0.00476987
aF0.00482596
aF0.00480987
aF0.00472529
aF0.00475388
aF0.00470349
aF0.00479284
aF0.00469076
aF0.00482513
aF0.00486083
aF0.00472534
aF0.00482419
aF0.00485662
aF0.00471096
aF0.00473536
aF0.00484183
aF0.0048192
aF0.00476665
aF0.00480386
aF0.00468411
aF0.00477109
aF0.00473423
aF0.00481646
aF0.00479915
aF0.00492189
aF0.00475021
aF0.00478566
aF0.00467931
aF0.00483444
aF0.00472628
aF0.00483695
aF0.0047041
aF0.00471135
aF0.00476705
aF0.00478749
aF0.00481187
aF0.00474522
aF0.00492016
aF0.00485514
aF0.00476306
aF0.00477139
aF0.00474949
aF0.00482322
aF0.00480516
aF0.00487838
aF0.00480301
aF0.00480433
aF0.00476441
aF0.00485383
aF0.00472855
aF0.00480705
aF0.00485158
aF0.00477666
aF0.00472268
aF0.00485235
aF0.00481863
aF0.00473864
aF0.00474184
aF0.00482386
aF0.00479653
aF0.00481459
aF0.00478409
aF0.00486428
aF0.00472842
aF0.0048821
aF0.00484669
aF0.00472651
aF0.00483157
aF0.00477684
aF0.00477554
aF0.00485458
aF0.0048627
aF0.004857
aF0.00472825
aF0.00481426
aF0.00477195
aF0.00479762
aF0.00470308
aF0.00478182
aF0.00481676
aF0.00472589
aF0.00471428
aF0.00472089
aF0.00471543
aF0.00481832
aF0.00485075
aF0.00469308
aF0.00479224
aF0.00476345
aF0.00464582
aF0.00473846
aF0.00478052
aF0.00478613
aF0.00475049
aF0.00476043
aF0.00482576
aF0.00475281
aF0.00477805
aF0.00475243
aF0.00475751
aF0.00474582
aF0.00483416
aF0.00472114
aF0.00479423
aF0.00475596
aF0.00475182
aF0.00478253
aF0.00484968
aF0.00487657
aF0.0048066
aF0.00467702
aF0.00478089
aF0.00483936
aF0.00486831
aF0.00479214
aF0.00475138
aF0.00487633
aF0.00483317
aF0.00476156
aF0.00484051
aF0.00481962
aF0.00484386
aF0.00466269
aF0.00474382
aF0.00486528
aF0.00478422
aF0.00484828
aF0.00490204
aF0.00485936
aF0.00480919
aF0.00482511
aF0.00476427
aF0.00482433
aF0.00473925
aF0.00474713
aF0.00477357
aF0.00481764
aF0.00476338
aF0.00483126
aF0.0048418
aF0.00492705
aF0.00484401
aF0.00487937
aF0.00483257
aF0.00488332
aF0.00475944
aF0.00478307
aF0.00485153
aF0.0047699
aF0.00478014
aF0.00476159
aF0.00478824
aF0.00478566
aF0.00488541
aF0.00483557
aF0.00493189
aF0.00487237
aF0.00487103
aF0.0048844
aF0.00475088
aF0.00484771
aF0.00479885
aF0.00484907
aF0.0047044
aF0.00484757
aF0.00483738
aF0.00478989
aF0.00482821
aF0.00480478
aF0.00483253
aF0.00479537
aF0.00472665
aF0.00485721
aF0.00476637
aF0.00488
aF0.00496513
aF0.00483119
aF0.00483509
aF0.00482723
aF0.00488191
aF0.00479232
aF0.00479115
aF0.00480289
aF0.00493572
aF0.00485228
aF0.00480576
aF0.00476356
aF0.00488551
aF0.00484094
aF0.00484699
aF0.00483249
aF0.0048401
aF0.00483858
aF0.00481115
aF0.00483751
aF0.00479368
aF0.0047786
aF0.00478306
aF0.00484438
aF0.00488733
aF0.00483314
aF0.0048574
aF0.00479443
aF0.00479199
aF0.00487647
aF0.00476824
aF0.00484536
aF0.00476209
aF0.00473469
aF0.00479985
aF0.00475387
aF0.00487545
aF0.00482321
aF0.0048263
aF0.00492125
aF0.00479737
aF0.00487034
aF0.00479437
asS'materials'
p76
(lp77
g0
(cRefuelCore
SerpentMaterial
p78
g2
Ntp79
Rp80
(dp81
S'atomdensity'
p82
F0.090690795723344
sS'density'
p83
F0.090690795723344
sg73
S''
p84
sS'burn'
p85
I01
sS'xstemplib'
p86
S'.09c'
p87
sS'volume'
p88
F16326500.0
sS'isotopic_content'
p89
(dp90
S'58138'
p91
F8.61564054530942e-15
sS'48116'
p92
F2.81925858117793e-08
sS'66164'
p93
F2.0922840854708e-10
sS'48114'
p94
F7.44645076175998e-08
sS'48113'
p95
F1.01782349785437e-09
sS'48112'
p96
F5.17175358616084e-08
sS'48111'
p97
F1.31665652064404e-07
sS'21045'
p98
F7.43213688271138e-66
sS'95243'
p99
F2.36280358192027e-07
sS'63151'
p100
F3.30837278993871e-10
sS'58136'
p101
F3.26175847909578e-25
sS'60146'
p102
F2.67180788059345e-06
sS'61348'
p103
F4.28399862756663e-09
sS'62144'
p104
F5.04934731115316e-22
sS'62147'
p105
F6.49463181448593e-07
sS'8017'
p106
F6.76597414347052e-10
sS'8016'
p107
F1.20441384059496e-06
sS'40090'
p108
F1.35976652126977e-07
sS'40091'
p109
F3.02409726124114e-06
sS'40096'
p110
F5.04503614943593e-06
sS'40094'
p111
F4.87655015055207e-06
sS'40095'
p112
F2.50530442900244e-07
sS'46102'
p113
F6.18065422645622e-15
sS'96250'
p114
F3.20220872669794e-22
sS'46106'
p115
F1.45697842944836e-06
sS'46107'
p116
F1.33262343345271e-06
sS'46104'
p117
F9.37346640249608e-07
sS'46105'
p118
F2.49532809948707e-06
sS'63154'
p119
F6.52587798442383e-08
sS'63155'
p120
F2.17737010947162e-08
sS'46108'
p121
F8.84967062237486e-07
sS'48110'
p122
F1.08931805515083e-07
sS'28058'
p123
F2.27971972991377e-45
sS'28059'
p124
F2.61773155120025e-38
sS'63152'
p125
F4.26389674123157e-10
sS'58140'
p126
F4.43704450660124e-06
sS'54131'
p127
F8.80360190215381e-13
sS'64153'
p128
F1.59449864102259e-11
sS'64152'
p129
F2.16235580435643e-10
sS'64155'
p130
F9.15366181070564e-10
sS'60148'
p131
F1.49286277961576e-06
sS'64157'
p132
F7.4143742435475e-10
sS'60144'
p133
F4.05224620443026e-06
sS'57140'
p134
F5.9521553609015e-09
sS'56136'
p135
F3.48869294979241e-08
sS'58142'
p136
F4.7289674664718e-06
sS'96245'
p137
F2.22304317040155e-09
sS'34082'
p138
F2.47022828639217e-07
sS'46110'
p139
F2.81213582904983e-07
sS'42100'
p140
F5.71430286537239e-06
sS'48106'
p141
F4.00947277216106e-20
sS'48108'
p142
F3.61882559801875e-13
sS'63153'
p143
F4.3062092000444e-07
sS'42097'
p144
F3.16496147767421e-06
sS'14028'
p145
F8.31306729518326e-101
sS'41093'
p146
F2.63245769843724e-13
sS'24050'
p147
F4.33678619165837e-63
sS'24052'
p148
F6.08676157975766e-46
sS'24053'
p149
F6.37783783352143e-46
sS'24054'
p150
F6.50223363062823e-41
sS'54126'
p151
F9.29245705870151e-21
sS'54124'
p152
F1.1559828738713e-36
sS'65159'
p153
F1.00898580920649e-08
sS'58144'
p154
F9.22401410868594e-07
sS'54129'
p155
F5.36792395084776e-20
sS'54128'
p156
F2.10296270174809e-15
sS'58141'
p157
F1.19902193061584e-07
sS'56138'
p158
F7.59259745530563e-07
sS'58143'
p159
F5.00820990908177e-09
sS'41094'
p160
F5.63287779546414e-12
sS'20043'
p161
F2.87632294967057e-69
sS'20042'
p162
F5.59726129891595e-73
sS'34080'
p163
F9.90060122195233e-08
sS'20040'
p164
F2.15509543261525e-93
sS'41095'
p165
F1.35935464110527e-07
sS'20046'
p166
F7.54138732188706e-61
sS'11023'
p167
F3.25402999733216e-110
sS'20044'
p168
F2.23548594165885e-65
sS'60145'
p169
F2.77721685342783e-06
sS'20048'
p170
F5.53518924109352e-67
sS'67165'
p171
F2.16260579786164e-10
sS'35079'
p172
F1.98580079128042e-11
sS'68164'
p173
F1.96721180025396e-15
sS'92240'
p174
F5.09401010050218e-14
sS'51123'
p175
F2.65713456625759e-08
sS'59143'
p176
F4.93317921722976e-08
sS'68166'
p177
F2.83962613242708e-11
sS'90234'
p178
F6.10329823287839e-14
sS'5010'
p179
F6.04161264085252e-17
sS'5011'
p180
F1.2599876951298e-15
sS'65160'
p181
F1.01572711162244e-10
sS'52126'
p182
F3.35467517402039e-09
sS'52120'
p183
F2.35064653711919e-18
sS'52123'
p184
F2.07257616280197e-12
sS'52122'
p185
F3.36841677247476e-10
sS'94237'
p186
F5.42947544036143e-14
sS'94236'
p187
F6.06779653782843e-15
sS'25055'
p188
F1.51992183794055e-38
sS'52128'
p189
F4.05929189012744e-07
sS'40092'
p190
F3.90668594847309e-06
sS'95244'
p191
F3.85608111843072e-12
sS'40093'
p192
F4.17578106001833e-06
sS'54134'
p193
F2.17863772754056e-12
sS'54135'
p194
F1.68104613905994e-12
sS'54136'
p195
F1.8686837697006e-12
sS'54130'
p196
F9.3145377572877e-15
sS'9019'
p197
F0.05465682686491
sS'54132'
p198
F1.33965667355253e-12
sS'54133'
p199
F1.87878749039864e-12
sS'32072'
p200
F3.67565844362115e-11
sS'39089'
p201
F6.15720655039925e-07
sS'93237'
p202
F5.65263463513395e-07
sS'91233'
p203
F1.96405133694375e-14
sS'93235'
p204
F8.05769390353592e-16
sS'55137'
p205
F8.85026661350107e-07
sS'55136'
p206
F1.97333230922786e-10
sS'55135'
p207
F9.73732067044039e-09
sS'55134'
p208
F1.2414962161271e-10
sS'55133'
p209
F3.52526934306892e-10
sS'64154'
p210
F1.35163337205508e-08
sS'56132'
p211
F1.2139303406578e-15
sS'49115'
p212
F7.54981928617788e-09
sS'56130'
p213
F6.78818707711818e-25
sS'13027'
p214
F5.40164070582339e-101
sS'56137'
p215
F5.31766183559316e-08
sS'31069'
p216
F6.0928349323745e-12
sS'49113'
p217
F2.23629478724065e-13
sS'90233'
p218
F4.85746360466008e-19
sS'90232'
p219
F8.41919422943531e-13
sS'45105'
p220
F3.31882807968041e-09
sS'90230'
p221
F1.34086492427877e-14
sS'45103'
p222
F3.14133209234631e-06
sS'39091'
p223
F1.4006559898566e-07
sS'47310'
p224
F1.6046876342258e-09
sS'52132'
p225
F1.04287912320682e-08
sS'17035'
p226
F1.21744162320905e-86
sS'52130'
p227
F1.76609303926824e-06
sS'17037'
p228
F6.23698367857275e-82
sS'92235'
p229
F8.94600978224068e-05
sS'94239'
p230
F2.18733252478247e-05
sS'61149'
p231
F2.10268471844414e-09
sS'93239'
p232
F1.25967010577855e-07
sS'16036'
p233
F1.42873919452036e-80
sS'56133'
p234
F1.22844199367256e-15
sS'95342'
p235
F4.08105608116569e-09
sS'63156'
p236
F3.66704723252266e-09
sS'95344'
p237
F2.4817654341172e-12
sS'53130'
p238
F1.08675136554849e-11
sS'51125'
p239
F3.5240057907078e-08
sS'91231'
p240
F3.10743221066723e-13
sS'91232'
p241
F2.93114446822518e-16
sS'53129'
p242
F7.32902094153357e-07
sS'96240'
p243
F5.15191350598938e-19
sS'96241'
p244
F2.8414982133e-16
sS'96242'
p245
F4.39823850730159e-08
sS'51121'
p246
F1.72637227521344e-08
sS'68168'
p247
F9.91154656482787e-12
sS'16033'
p248
F1.20620062566613e-89
sS'15031'
p249
F5.58019675026022e-95
sS'90228'
p250
F1.31349332084611e-15
sS'90229'
p251
F1.94643858628025e-16
sS'19041'
p252
F2.95932202860153e-75
sS'19040'
p253
F8.6943048438124e-84
sS'44104'
p254
F3.29244590465037e-06
sS'44105'
p255
F4.23985794259169e-10
sS'44106'
p256
F5.97212020862683e-07
sS'50119'
p257
F2.21099605394488e-08
sS'44100'
p258
F3.25968514819984e-07
sS'44101'
p259
F4.75965081892242e-06
sS'44102'
p260
F4.6526667962471e-06
sS'16032'
p261
F5.64887973631173e-93
sS'50112'
p262
F2.81118077197713e-18
sS'31071'
p263
F2.7006607759446e-11
sS'52125'
p264
F1.96136429280212e-08
sS'38089'
p265
F2.44482631445946e-08
sS'1003'
p266
F8.88404841597094e-07
sS'1002'
p267
F4.35725866980684e-09
sS'1001'
p268
F3.62227642425131e-10
sS'50115'
p269
F6.80179520279075e-10
sS'96247'
p270
F6.42936092012871e-13
sS'14030'
p271
F2.9721568052702e-93
sS'63157'
p272
F2.06366608654828e-11
sS'52124'
p273
F5.4417739548273e-10
sS'62150'
p274
F1.04849558609579e-06
sS'59142'
p275
F5.36141195076804e-11
sS'3007'
p276
F0.0258877921412872
sS'3006'
p277
F6.2821283240309e-07
sS'60150'
p278
F7.11704581399056e-07
sS'93238'
p279
F4.86271228125671e-10
sS'54123'
p280
F1.58875808260609e-49
sS'32070'
p281
F4.24773631205894e-14
sS'7014'
p282
F5.66703062393001e-15
sS'7015'
p283
F3.34752174020631e-07
sS'32074'
p284
F4.32295793333811e-10
sS'32076'
p285
F2.69809195354918e-09
sS'50126'
p286
F1.02556669780792e-07
sS'50125'
p287
F3.05313984694168e-10
sS'50124'
p288
F4.6061832791378e-08
sS'50123'
p289
F1.35098251714399e-09
sS'50122'
p290
F2.51851206619529e-08
sS'33074'
p291
F4.25138738782064e-17
sS'33075'
p292
F1.03546540710726e-09
sS'68170'
p293
F6.76875013984754e-13
sS'94238'
p294
F2.20333307315002e-07
sS'37087'
p295
F1.86499070020188e-08
sS'37086'
p296
F1.31824837699558e-12
sS'37085'
p297
F2.66290055793801e-09
sS'30064'
p298
F1.6694275478553e-22
sS'38090'
p299
F2.1374473595486e-06
sS'52329'
p300
F1.01606046590776e-11
sS'52327'
p301
F3.91691470474613e-10
sS'53135'
p302
F1.23103972582449e-09
sS'32073'
p303
F1.58710733564536e-10
sS'11022'
p304
F7.69852625079035e-120
sS'66156'
p305
F3.67773958955281e-19
sS'53131'
p306
F1.78129483563037e-08
sS'18040'
p307
F1.08269699175013e-80
sS'96244'
p308
F4.78995949409857e-08
sS'56140'
p309
F4.47640328574854e-08
sS'34077'
p310
F3.84817365971938e-09
sS'34076'
p311
F1.82734118365369e-11
sS'34074'
p312
F7.44769975360764e-16
sS'34079'
p313
F3.67312432379878e-08
sS'34078'
p314
F1.72295367753159e-08
sS'96246'
p315
F8.82379852351013e-11
sS'12024'
p316
F4.4595777705905e-108
sS'12025'
p317
F4.22399122749586e-107
sS'12026'
p318
F1.0692435162745e-102
sS'22046'
p319
F9.97455671939107e-67
sS'60142'
p320
F4.92823367086062e-08
sS'60143'
p321
F3.8513777365231e-06
sS'68162'
p322
F2.76618313689301e-19
sS'64158'
p323
F1.51821498839976e-07
sS'94244'
p324
F2.49841572562752e-11
sS'22049'
p325
F1.97709058669257e-53
sS'22048'
p326
F6.02581518610513e-56
sS'44098'
p327
F7.79298371373986e-16
sS'44099'
p328
F1.99301249463501e-10
sS'50120'
p329
F2.14311806935059e-08
sS'95242'
p330
F2.63184305915879e-10
sS'96243'
p331
F7.24934740653263e-10
sS'56134'
p332
F1.15090933570505e-10
sS'38086'
p333
F7.41681522880839e-11
sS'38087'
p334
F1.02604362557091e-11
sS'38084'
p335
F1.34437770371479e-16
sS'18036'
p336
F8.06466273780983e-102
sS'48315'
p337
F6.19783203389906e-11
sS'53127'
p338
F9.05202315927786e-08
sS'61147'
p339
F9.05301494635065e-07
sS'51124'
p340
F5.30514337022883e-11
sS'28064'
p341
F3.64893480501247e-22
sS'51126'
p342
F2.98998772692872e-11
sS'16034'
p343
F3.91206301520939e-89
sS'28061'
p344
F4.45262055027913e-25
sS'28060'
p345
F1.0279625896625e-30
sS'38088'
p346
F3.80556468795957e-08
sS'28062'
p347
F1.72276393573065e-23
sS'64156'
p348
F2.71730518291269e-07
sS'92233'
p349
F1.00224567224504e-12
sS'43099'
p350
F4.847637124413e-06
sS'62148'
p351
F4.04089762166752e-07
sS'92234'
p352
F3.51997392593601e-09
sS'96248'
p353
F2.36285487141461e-14
sS'50114'
p354
F1.6945875589029e-14
sS'56135'
p355
F4.12051671746422e-12
sS'66162'
p356
F6.93893751045681e-10
sS'96249'
p357
F8.55347155434854e-20
sS'36080'
p358
F6.15310643733395e-19
sS'47107'
p359
F3.1372368553508e-13
sS'6012'
p360
F4.91194727025419e-14
sS'39090'
p361
F5.43027440839215e-10
sS'22050'
p362
F1.43964452871543e-52
sS'92239'
p363
F8.70734920844595e-10
sS'35081'
p364
F1.65443389100658e-07
sS'93236'
p365
F5.27759240774249e-13
sS'36082'
p366
F1.78506208118951e-15
sS'36083'
p367
F2.26983975452718e-15
sS'36084'
p368
F2.06311468180896e-13
sS'18038'
p369
F4.12094364162993e-86
sS'36086'
p370
F3.68884877128814e-13
sS'42092'
p371
F2.14221727460027e-20
sS'4009'
p372
F0.00575195031321916
sS'62149'
p373
F1.88171681929469e-08
sS'94243'
p374
F9.85734431359434e-11
sS'90227'
p375
F3.66746627918071e-22
sS'47109'
p376
F4.6618582448801e-07
sS'59141'
p377
F4.53908358872127e-06
sS'66163'
p378
F4.64022139425087e-10
sS'50118'
p379
F2.20096855319156e-08
sS'36085'
p380
F1.58150676692165e-14
sS'26058'
p381
F5.98565769248537e-31
sS'61151'
p382
F4.95092934124069e-10
sS'42094'
p383
F8.70500122320335e-12
sS'42095'
p384
F4.49265319408592e-06
sS'42096'
p385
F1.55890549197323e-07
sS'19039'
p386
F8.01312423327369e-87
sS'42098'
p387
F5.08779233901122e-06
sS'42099'
p388
F1.17998757845666e-08
sS'26056'
p389
F2.93837783947449e-39
sS'26057'
p390
F7.44361378319359e-37
sS'26054'
p391
F2.92506894391441e-53
sS'92238'
p392
F0.0041353681718919
sS'14029'
p393
F2.88172868189535e-97
sS'94240'
p394
F8.59777265973003e-06
sS'67366'
p395
F2.27390573995206e-13
sS'66160'
p396
F6.88197969875948e-10
sS'44103'
p397
F1.36367488918117e-07
sS'23051'
p398
F4.94988974292098e-48
sS'95241'
p399
F3.23789709381231e-07
sS'64160'
p400
F5.44897562628119e-08
sS'62154'
p401
F1.41631013365735e-07
sS'62153'
p402
F1.2835655166332e-09
sS'62152'
p403
F4.88670989824743e-07
sS'62151'
p404
F9.1948239139293e-08
sS'47111'
p405
F9.138762007774e-10
sS'27059'
p406
F2.4233399872113e-32
sS'27058'
p407
F3.37209788914712e-40
sS'68167'
p408
F3.08382921363239e-12
sS'92237'
p409
F5.92646955462018e-09
sS'57139'
p410
F3.2850566942417e-06
sS'44096'
p411
F4.51453541283006e-26
sS'94241'
p412
F4.61054387557466e-06
sS'92236'
p413
F1.09143050752009e-05
sS'60147'
p414
F1.6558922697534e-08
sS'66161'
p415
F5.45168648663856e-10
sS'50116'
p416
F7.32402719733206e-09
sS'50113'
p417
F3.23562433251256e-20
sS'22047'
p418
F2.95917130593512e-59
sS'94242'
p419
F1.30373744215712e-06
sS'50117'
p420
F2.43982919643438e-08
sS'2003'
p421
F7.91937754824051e-14
sS'66158'
p422
F9.15441219785187e-17
sS'29065'
p423
F1.64957506101969e-15
sS'58139'
p424
F8.12857403091103e-13
sS'29063'
p425
F1.44593812867191e-29
sS'2004'
p426
F2.26844388950568e-12
sS'92241'
p427
F6.44782641129785e-20
sS'92232'
p428
F1.26479559240304e-13
sS'57138'
p429
F3.60831253585834e-11
sS'36078'
p430
F3.952745257475e-26
sS'61148'
p431
F1.37212629210448e-09
ssg61
g62
sS'materialname'
p432
S'fuel'
p433
sS'massdensity'
p434
Nsbag0
(g78
g2
Ntp435
Rp436
(dp437
g82
Nsg83
F-1.8
sg73
g84
sg53
g84
sg85
I00
sg86
S'.09c'
p438
sg88
Nsg89
(dp439
S'5010'
p440
F4e-07
sS'5011'
p441
F1.6e-06
sS'6000'
p442
F0.999998
ssg61
g62
sg432
S'mod'
p443
sg434
F1.8
sbag0
(g78
g2
Ntp444
Rp445
(dp446
g82
Nsg83
F-8.86
sg73
g84
sg53
g84
sg85
I00
sg86
g438
sg88
Nsg89
(dp447
S'14030'
p448
F-0.00030872
sS'74186'
p449
F-0.0014215
sS'25055'
p450
F-0.008
sS'74184'
p451
F-0.001532
sS'74183'
p452
F-0.0007155
sS'74182'
p453
F-0.001325
sS'28058'
p454
F-0.4721201092
sS'42092'
p455
F-0.023744
sS'26058'
p456
F-0.000141
sS'42094'
p457
F-0.0148
sS'42095'
p458
F-0.025472
sS'42096'
p459
F-0.026688
sS'42097'
p460
F-0.01528
sS'42098'
p461
F-0.038608
sS'26056'
p462
F-0.045877
sS'26057'
p463
F-0.0010595
sS'26054'
p464
F-0.0029225
sS'42100'
p465
F-0.015408
sS'14028'
p466
F-0.00922297
sS'14029'
p467
F-0.00046832
sS'24050'
p468
F-0.0030415
sS'24052'
p469
F-0.0586523
sS'24053'
p470
F-0.0066507
sS'24054'
p471
F-0.0016555
sS'29065'
p472
F-0.00107905
sS'29063'
p473
F-0.00242095
sS'28064'
p474
F-0.0064191286
sS'28061'
p475
F-0.0079053205
sS'28060'
p476
F-0.1818598208
sS'28062'
p477
F-0.025205621
ssg61
g62
sg432
S'tank'
p478
sg434
F8.86
sbag0
(g78
g2
Ntp479
Rp480
(dp481
g82
F0.0795987893431214
sg83
F0.0795987893431214
sg73
g84
sg85
I01
sg86
g87
sg88
F1000000.0
sg89
(dp482
S'58138'
p483
F0.0
sS'48116'
p484
F0.0
sS'66164'
p485
F0.0
sS'48114'
p486
F0.0
sS'48113'
p487
F0.0
sS'48112'
p488
F0.0
sS'48111'
p489
F0.0
sS'21045'
p490
F0.0
sS'95243'
p491
F0.0
sS'63151'
p492
F0.0
sS'58136'
p493
F0.0
sS'60146'
p494
F0.0
sS'61348'
p495
F0.0
sS'62144'
p496
F0.0
sS'62147'
p497
F0.0
sS'8017'
p498
F0.0
sS'8016'
p499
F0.0
sS'40090'
p500
F0.0
sS'40091'
p501
F0.0
sS'40096'
p502
F0.0
sS'40094'
p503
F0.0
sS'40095'
p504
F0.0
sS'46102'
p505
F0.0
sS'96250'
p506
F0.0
sS'46106'
p507
F0.0
sS'46107'
p508
F0.0
sS'46104'
p509
F0.0
sS'46105'
p510
F0.0
sS'63154'
p511
F0.0
sS'63155'
p512
F0.0
sS'46108'
p513
F0.0
sS'48110'
p514
F0.0
sS'28058'
p515
F0.0
sS'28059'
p516
F0.0
sS'63152'
p517
F0.0
sS'58140'
p518
F0.0
sS'54131'
p519
F0.0
sS'64153'
p520
F0.0
sS'64152'
p521
F0.0
sS'64155'
p522
F0.0
sS'60148'
p523
F0.0
sS'64157'
p524
F0.0
sS'60144'
p525
F0.0
sS'57140'
p526
F0.0
sS'56136'
p527
F0.0
sS'58142'
p528
F0.0
sS'96245'
p529
F0.0
sS'34082'
p530
F0.0
sS'46110'
p531
F0.0
sS'42100'
p532
F0.0
sS'48106'
p533
F0.0
sS'48108'
p534
F0.0
sS'63153'
p535
F0.0
sS'42097'
p536
F0.0
sS'14028'
p537
F0.0
sS'41093'
p538
F0.0
sS'24050'
p539
F0.0
sS'24052'
p540
F0.0
sS'24053'
p541
F0.0
sS'24054'
p542
F0.0
sS'54126'
p543
F0.0
sS'54124'
p544
F0.0
sS'65159'
p545
F0.0
sS'58144'
p546
F0.0
sS'54129'
p547
F0.0
sS'54128'
p548
F0.0
sS'58141'
p549
F0.0
sS'56138'
p550
F0.0
sS'58143'
p551
F0.0
sS'41094'
p552
F0.0
sS'20043'
p553
F0.0
sS'20042'
p554
F0.0
sS'34080'
p555
F0.0
sS'20040'
p556
F0.0
sS'41095'
p557
F0.0
sS'20046'
p558
F0.0
sS'11023'
p559
F0.0
sS'20044'
p560
F0.0
sS'60145'
p561
F0.0
sS'20048'
p562
F0.0
sS'67165'
p563
F0.0
sS'35079'
p564
F0.0
sS'68164'
p565
F0.0
sS'92240'
p566
F0.0
sS'51123'
p567
F0.0
sS'59143'
p568
F0.0
sS'68166'
p569
F0.0
sS'90234'
p570
F4.49072507641338e-14
sS'5010'
p571
F0.0
sS'5011'
p572
F0.0
sS'65160'
p573
F0.0
sS'52126'
p574
F0.0
sS'52120'
p575
F0.0
sS'52123'
p576
F0.0
sS'52122'
p577
F0.0
sS'94237'
p578
F0.0
sS'94236'
p579
F0.0
sS'25055'
p580
F0.0
sS'52128'
p581
F0.0
sS'40092'
p582
F0.0
sS'95244'
p583
F0.0
sS'40093'
p584
F0.0
sS'54134'
p585
F0.0
sS'54135'
p586
F0.0
sS'54136'
p587
F0.0
sS'54130'
p588
F0.0
sS'9019'
p589
F0.0480067465726441
sS'54132'
p590
F0.0
sS'54133'
p591
F0.0
sS'32072'
p592
F0.0
sS'39089'
p593
F0.0
sS'93237'
p594
F0.0
sS'91233'
p595
F0.0
sS'93235'
p596
F0.0
sS'55137'
p597
F0.0
sS'55136'
p598
F0.0
sS'55135'
p599
F0.0
sS'55134'
p600
F0.0
sS'55133'
p601
F0.0
sS'64154'
p602
F0.0
sS'56132'
p603
F0.0
sS'49115'
p604
F0.0
sS'56130'
p605
F0.0
sS'13027'
p606
F0.0
sS'56137'
p607
F0.0
sS'31069'
p608
F0.0
sS'49113'
p609
F0.0
sS'90233'
p610
F0.0
sS'90232'
p611
F0.0
sS'45105'
p612
F0.0
sS'90230'
p613
F1.49936406862011e-17
sS'45103'
p614
F0.0
sS'39091'
p615
F0.0
sS'47310'
p616
F0.0
sS'52132'
p617
F0.0
sS'17035'
p618
F0.0
sS'52130'
p619
F0.0
sS'17037'
p620
F0.0
sS'92235'
p621
F0.000757897462892819
sS'94239'
p622
F0.0
sS'61149'
p623
F0.0
sS'93239'
p624
F0.0
sS'16036'
p625
F0.0
sS'56133'
p626
F0.0
sS'95342'
p627
F0.0
sS'63156'
p628
F0.0
sS'95344'
p629
F0.0
sS'53130'
p630
F0.0
sS'51125'
p631
F0.0
sS'91231'
p632
F2.91177875610686e-12
sS'91232'
p633
F0.0
sS'53129'
p634
F0.0
sS'96240'
p635
F0.0
sS'96241'
p636
F0.0
sS'96242'
p637
F0.0
sS'51121'
p638
F0.0
sS'68168'
p639
F0.0
sS'16033'
p640
F0.0
sS'15031'
p641
F0.0
sS'90228'
p642
F0.0
sS'90229'
p643
F0.0
sS'19041'
p644
F0.0
sS'19040'
p645
F0.0
sS'44104'
p646
F0.0
sS'44105'
p647
F0.0
sS'44106'
p648
F0.0
sS'50119'
p649
F0.0
sS'44100'
p650
F0.0
sS'44101'
p651
F0.0
sS'44102'
p652
F0.0
sS'16032'
p653
F0.0
sS'50112'
p654
F0.0
sS'31071'
p655
F0.0
sS'52125'
p656
F0.0
sS'38089'
p657
F0.0
sS'1003'
p658
F0.0
sS'1002'
p659
F0.0
sS'1001'
p660
F0.0
sS'50115'
p661
F0.0
sS'96247'
p662
F0.0
sS'14030'
p663
F0.0
sS'63157'
p664
F0.0
sS'52124'
p665
F0.0
sS'62150'
p666
F0.0
sS'59142'
p667
F0.0
sS'3007'
p668
F0.0227386659286736
sS'3006'
p669
F1.13701070698867e-06
sS'60150'
p670
F0.0
sS'93238'
p671
F0.0
sS'54123'
p672
F0.0
sS'32070'
p673
F0.0
sS'7014'
p674
F0.0
sS'7015'
p675
F0.0
sS'32074'
p676
F0.0
sS'32076'
p677
F0.0
sS'50126'
p678
F0.0
sS'50125'
p679
F0.0
sS'50124'
p680
F0.0
sS'50123'
p681
F0.0
sS'50122'
p682
F0.0
sS'33074'
p683
F0.0
sS'33075'
p684
F0.0
sS'68170'
p685
F0.0
sS'94238'
p686
F0.0
sS'37087'
p687
F0.0
sS'37086'
p688
F0.0
sS'37085'
p689
F0.0
sS'30064'
p690
F0.0
sS'38090'
p691
F0.0
sS'52329'
p692
F0.0
sS'52327'
p693
F0.0
sS'53135'
p694
F0.0
sS'32073'
p695
F0.0
sS'11022'
p696
F0.0
sS'66156'
p697
F0.0
sS'53131'
p698
F0.0
sS'18040'
p699
F0.0
sS'96244'
p700
F0.0
sS'56140'
p701
F0.0
sS'34077'
p702
F0.0
sS'34076'
p703
F0.0
sS'34074'
p704
F0.0
sS'34079'
p705
F0.0
sS'34078'
p706
F0.0
sS'96246'
p707
F0.0
sS'12024'
p708
F0.0
sS'12025'
p709
F0.0
sS'12026'
p710
F0.0
sS'22046'
p711
F0.0
sS'60142'
p712
F0.0
sS'60143'
p713
F0.0
sS'68162'
p714
F0.0
sS'64158'
p715
F0.0
sS'94244'
p716
F0.0
sS'22049'
p717
F0.0
sS'22048'
p718
F0.0
sS'44098'
p719
F0.0
sS'44099'
p720
F0.0
sS'50120'
p721
F0.0
sS'95242'
p722
F0.0
sS'96243'
p723
F0.0
sS'56134'
p724
F0.0
sS'38086'
p725
F0.0
sS'38087'
p726
F0.0
sS'38084'
p727
F0.0
sS'18036'
p728
F0.0
sS'48315'
p729
F0.0
sS'53127'
p730
F0.0
sS'61147'
p731
F0.0
sS'51124'
p732
F0.0
sS'28064'
p733
F0.0
sS'51126'
p734
F0.0
sS'16034'
p735
F0.0
sS'28061'
p736
F0.0
sS'28060'
p737
F0.0
sS'38088'
p738
F0.0
sS'28062'
p739
F0.0
sS'64156'
p740
F0.0
sS'92233'
p741
F0.0
sS'43099'
p742
F0.0
sS'62148'
p743
F0.0
sS'92234'
p744
F2.17288275072715e-12
sS'96248'
p745
F0.0
sS'50114'
p746
F0.0
sS'56135'
p747
F0.0
sS'66162'
p748
F0.0
sS'96249'
p749
F0.0
sS'36080'
p750
F0.0
sS'47107'
p751
F0.0
sS'6012'
p752
F0.0
sS'39090'
p753
F0.0
sS'22050'
p754
F0.0
sS'92239'
p755
F0.0
sS'35081'
p756
F0.0
sS'93236'
p757
F0.0
sS'36082'
p758
F0.0
sS'36083'
p759
F0.0
sS'36084'
p760
F0.0
sS'18038'
p761
F0.0
sS'36086'
p762
F0.0
sS'42092'
p763
F0.0
sS'4009'
p764
F0.00505327927599411
sS'62149'
p765
F0.0
sS'94243'
p766
F0.0
sS'90227'
p767
F1.40387182197841e-21
sS'47109'
p768
F0.0
sS'59141'
p769
F0.0
sS'66163'
p770
F0.0
sS'50118'
p771
F0.0
sS'36085'
p772
F0.0
sS'26058'
p773
F0.0
sS'61151'
p774
F0.0
sS'42094'
p775
F0.0
sS'42095'
p776
F0.0
sS'42096'
p777
F0.0
sS'19039'
p778
F0.0
sS'42098'
p779
F0.0
sS'42099'
p780
F0.0
sS'26056'
p781
F0.0
sS'26057'
p782
F0.0
sS'26054'
p783
F0.0
sS'92238'
p784
F0.00304106308100745
sS'14029'
p785
F0.0
sS'94240'
p786
F0.0
sS'67366'
p787
F0.0
sS'66160'
p788
F0.0
sS'44103'
p789
F0.0
sS'23051'
p790
F0.0
sS'95241'
p791
F0.0
sS'64160'
p792
F0.0
sS'62154'
p793
F0.0
sS'62153'
p794
F0.0
sS'62152'
p795
F0.0
sS'62151'
p796
F0.0
sS'47111'
p797
F0.0
sS'27059'
p798
F0.0
sS'27058'
p799
F0.0
sS'68167'
p800
F0.0
sS'92237'
p801
F0.0
sS'57139'
p802
F0.0
sS'44096'
p803
F0.0
sS'94241'
p804
F0.0
sS'92236'
p805
F0.0
sS'60147'
p806
F0.0
sS'66161'
p807
F0.0
sS'50116'
p808
F0.0
sS'50113'
p809
F0.0
sS'22047'
p810
F0.0
sS'94242'
p811
F0.0
sS'50117'
p812
F0.0
sS'2003'
p813
F0.0
sS'66158'
p814
F0.0
sS'29065'
p815
F0.0
sS'58139'
p816
F0.0
sS'29063'
p817
F0.0
sS'2004'
p818
F6.06917180290871e-12
sS'92241'
p819
F0.0
sS'92232'
p820
F0.0
sS'57138'
p821
F0.0
sS'36078'
p822
F0.0
sS'61148'
p823
F0.0
ssg61
g62
sg432
S'refuel'
p824
sg434
Nsbag0
(g78
g2
Ntp825
Rp826
(dp827
g82
F0.0483230574795426
sg83
F0.0483230574795426
sg73
g84
sg85
I01
sg86
g87
sg88
F1000000.0
sg89
(dp828
S'58138'
p829
F0.0
sS'48116'
p830
F0.0
sS'66164'
p831
F0.0
sS'48114'
p832
F0.0
sS'48113'
p833
F0.0
sS'48112'
p834
F0.0
sS'48111'
p835
F0.0
sS'21045'
p836
F0.0
sS'95243'
p837
F0.0
sS'63151'
p838
F0.0
sS'58136'
p839
F0.0
sS'60146'
p840
F0.0
sS'61348'
p841
F0.0
sS'62144'
p842
F0.0
sS'62147'
p843
F0.0
sS'8017'
p844
F0.0
sS'8016'
p845
F0.0
sS'40090'
p846
F0.0
sS'40091'
p847
F0.0
sS'40096'
p848
F0.0
sS'40094'
p849
F0.0
sS'40095'
p850
F0.0
sS'46102'
p851
F0.0
sS'96250'
p852
F0.0
sS'46106'
p853
F0.0
sS'46107'
p854
F0.0
sS'46104'
p855
F0.0
sS'46105'
p856
F0.0
sS'63154'
p857
F0.0
sS'63155'
p858
F0.0
sS'46108'
p859
F0.0
sS'48110'
p860
F0.0
sS'28058'
p861
F0.0
sS'28059'
p862
F0.0
sS'63152'
p863
F0.0
sS'58140'
p864
F0.0
sS'54131'
p865
F0.0
sS'64153'
p866
F0.0
sS'64152'
p867
F0.0
sS'64155'
p868
F0.0
sS'60148'
p869
F0.0
sS'64157'
p870
F0.0
sS'60144'
p871
F0.0
sS'57140'
p872
F0.0
sS'56136'
p873
F0.0
sS'58142'
p874
F0.0
sS'96245'
p875
F0.0
sS'34082'
p876
F0.0
sS'46110'
p877
F0.0
sS'42100'
p878
F0.0
sS'48106'
p879
F0.0
sS'48108'
p880
F0.0
sS'63153'
p881
F0.0
sS'42097'
p882
F0.0
sS'14028'
p883
F0.0
sS'41093'
p884
F0.0
sS'24050'
p885
F0.0
sS'24052'
p886
F0.0
sS'24053'
p887
F0.0
sS'24054'
p888
F0.0
sS'54126'
p889
F0.0
sS'54124'
p890
F0.0
sS'65159'
p891
F0.0
sS'58144'
p892
F0.0
sS'54129'
p893
F0.0
sS'54128'
p894
F0.0
sS'58141'
p895
F0.0
sS'56138'
p896
F0.0
sS'58143'
p897
F0.0
sS'41094'
p898
F0.0
sS'20043'
p899
F0.0
sS'20042'
p900
F0.0
sS'34080'
p901
F0.0
sS'20040'
p902
F0.0
sS'41095'
p903
F0.0
sS'20046'
p904
F0.0
sS'11023'
p905
F0.0
sS'20044'
p906
F0.0
sS'60145'
p907
F0.0
sS'20048'
p908
F0.0
sS'67165'
p909
F0.0
sS'35079'
p910
F0.0
sS'68164'
p911
F0.0
sS'92240'
p912
F0.0
sS'51123'
p913
F0.0
sS'59143'
p914
F0.0
sS'68166'
p915
F0.0
sS'90234'
p916
F7.13584558709541e-13
sS'5010'
p917
F0.0
sS'5011'
p918
F0.0
sS'65160'
p919
F0.0
sS'52126'
p920
F0.0
sS'52120'
p921
F0.0
sS'52123'
p922
F0.0
sS'52122'
p923
F0.0
sS'94237'
p924
F0.0
sS'94236'
p925
F0.0
sS'25055'
p926
F0.0
sS'52128'
p927
F0.0
sS'40092'
p928
F0.0
sS'95244'
p929
F0.0
sS'40093'
p930
F0.0
sS'54134'
p931
F0.0
sS'54135'
p932
F0.0
sS'54136'
p933
F0.0
sS'54130'
p934
F0.0
sS'9019'
p935
F0.0
sS'54132'
p936
F0.0
sS'54133'
p937
F0.0
sS'32072'
p938
F0.0
sS'39089'
p939
F0.0
sS'93237'
p940
F0.0
sS'91233'
p941
F0.0
sS'93235'
p942
F0.0
sS'55137'
p943
F0.0
sS'55136'
p944
F0.0
sS'55135'
p945
F0.0
sS'55134'
p946
F0.0
sS'55133'
p947
F0.0
sS'64154'
p948
F0.0
sS'56132'
p949
F0.0
sS'49115'
p950
F0.0
sS'56130'
p951
F0.0
sS'13027'
p952
F0.0
sS'56137'
p953
F0.0
sS'31069'
p954
F0.0
sS'49113'
p955
F0.0
sS'90233'
p956
F0.0
sS'90232'
p957
F0.0
sS'45105'
p958
F0.0
sS'90230'
p959
F2.38251736433171e-16
sS'45103'
p960
F0.0
sS'39091'
p961
F0.0
sS'47310'
p962
F0.0
sS'52132'
p963
F0.0
sS'17035'
p964
F0.0
sS'52130'
p965
F0.0
sS'17037'
p966
F0.0
sS'92235'
p967
F0.0
sS'94239'
p968
F0.0
sS'61149'
p969
F0.0
sS'93239'
p970
F0.0
sS'16036'
p971
F0.0
sS'56133'
p972
F0.0
sS'95342'
p973
F0.0
sS'63156'
p974
F0.0
sS'95344'
p975
F0.0
sS'53130'
p976
F0.0
sS'51125'
p977
F0.0
sS'91231'
p978
F0.0
sS'91232'
p979
F0.0
sS'53129'
p980
F0.0
sS'96240'
p981
F0.0
sS'96241'
p982
F0.0
sS'96242'
p983
F0.0
sS'51121'
p984
F0.0
sS'68168'
p985
F0.0
sS'16033'
p986
F0.0
sS'15031'
p987
F0.0
sS'90228'
p988
F0.0
sS'90229'
p989
F0.0
sS'19041'
p990
F0.0
sS'19040'
p991
F0.0
sS'44104'
p992
F0.0
sS'44105'
p993
F0.0
sS'44106'
p994
F0.0
sS'50119'
p995
F0.0
sS'44100'
p996
F0.0
sS'44101'
p997
F0.0
sS'44102'
p998
F0.0
sS'16032'
p999
F0.0
sS'50112'
p1000
F0.0
sS'31071'
p1001
F0.0
sS'52125'
p1002
F0.0
sS'38089'
p1003
F0.0
sS'1003'
p1004
F0.0
sS'1002'
p1005
F0.0
sS'1001'
p1006
F0.0
sS'50115'
p1007
F0.0
sS'96247'
p1008
F0.0
sS'14030'
p1009
F0.0
sS'63157'
p1010
F0.0
sS'52124'
p1011
F0.0
sS'62150'
p1012
F0.0
sS'59142'
p1013
F0.0
sS'3007'
p1014
F0.0
sS'3006'
p1015
F0.0
sS'60150'
p1016
F0.0
sS'93238'
p1017
F0.0
sS'54123'
p1018
F0.0
sS'32070'
p1019
F0.0
sS'7014'
p1020
F0.0
sS'7015'
p1021
F0.0
sS'32074'
p1022
F0.0
sS'32076'
p1023
F0.0
sS'50126'
p1024
F0.0
sS'50125'
p1025
F0.0
sS'50124'
p1026
F0.0
sS'50123'
p1027
F0.0
sS'50122'
p1028
F0.0
sS'33074'
p1029
F0.0
sS'33075'
p1030
F0.0
sS'68170'
p1031
F0.0
sS'94238'
p1032
F0.0
sS'37087'
p1033
F0.0
sS'37086'
p1034
F0.0
sS'37085'
p1035
F0.0
sS'30064'
p1036
F0.0
sS'38090'
p1037
F0.0
sS'52329'
p1038
F0.0
sS'52327'
p1039
F0.0
sS'53135'
p1040
F0.0
sS'32073'
p1041
F0.0
sS'11022'
p1042
F0.0
sS'66156'
p1043
F0.0
sS'53131'
p1044
F0.0
sS'18040'
p1045
F0.0
sS'96244'
p1046
F0.0
sS'56140'
p1047
F0.0
sS'34077'
p1048
F0.0
sS'34076'
p1049
F0.0
sS'34074'
p1050
F0.0
sS'34079'
p1051
F0.0
sS'34078'
p1052
F0.0
sS'96246'
p1053
F0.0
sS'12024'
p1054
F0.0
sS'12025'
p1055
F0.0
sS'12026'
p1056
F0.0
sS'22046'
p1057
F0.0
sS'60142'
p1058
F0.0
sS'60143'
p1059
F0.0
sS'68162'
p1060
F0.0
sS'64158'
p1061
F0.0
sS'94244'
p1062
F0.0
sS'22049'
p1063
F0.0
sS'22048'
p1064
F0.0
sS'44098'
p1065
F0.0
sS'44099'
p1066
F0.0
sS'50120'
p1067
F0.0
sS'95242'
p1068
F0.0
sS'96243'
p1069
F0.0
sS'56134'
p1070
F0.0
sS'38086'
p1071
F0.0
sS'38087'
p1072
F0.0
sS'38084'
p1073
F0.0
sS'18036'
p1074
F0.0
sS'48315'
p1075
F0.0
sS'53127'
p1076
F0.0
sS'61147'
p1077
F0.0
sS'51124'
p1078
F0.0
sS'28064'
p1079
F0.0
sS'51126'
p1080
F0.0
sS'16034'
p1081
F0.0
sS'28061'
p1082
F0.0
sS'28060'
p1083
F0.0
sS'38088'
p1084
F0.0
sS'28062'
p1085
F0.0
sS'64156'
p1086
F0.0
sS'92233'
p1087
F0.0
sS'43099'
p1088
F0.0
sS'62148'
p1089
F0.0
sS'92234'
p1090
F3.4527510646437e-11
sS'96248'
p1091
F0.0
sS'50114'
p1092
F0.0
sS'56135'
p1093
F0.0
sS'66162'
p1094
F0.0
sS'96249'
p1095
F0.0
sS'36080'
p1096
F0.0
sS'47107'
p1097
F0.0
sS'6012'
p1098
F0.0
sS'39090'
p1099
F0.0
sS'22050'
p1100
F0.0
sS'92239'
p1101
F0.0
sS'35081'
p1102
F0.0
sS'93236'
p1103
F0.0
sS'36082'
p1104
F0.0
sS'36083'
p1105
F0.0
sS'36084'
p1106
F0.0
sS'18038'
p1107
F0.0
sS'36086'
p1108
F0.0
sS'42092'
p1109
F0.0
sS'4009'
p1110
F0.0
sS'62149'
p1111
F0.0
sS'94243'
p1112
F0.0
sS'90227'
p1113
F0.0
sS'47109'
p1114
F0.0
sS'59141'
p1115
F0.0
sS'66163'
p1116
F0.0
sS'50118'
p1117
F0.0
sS'36085'
p1118
F0.0
sS'26058'
p1119
F0.0
sS'61151'
p1120
F0.0
sS'42094'
p1121
F0.0
sS'42095'
p1122
F0.0
sS'42096'
p1123
F0.0
sS'19039'
p1124
F0.0
sS'42098'
p1125
F0.0
sS'42099'
p1126
F0.0
sS'26056'
p1127
F0.0
sS'26057'
p1128
F0.0
sS'26054'
p1129
F0.0
sS'92238'
p1130
F0.0483230574069398
sS'14029'
p1131
F0.0
sS'94240'
p1132
F0.0
sS'67366'
p1133
F0.0
sS'66160'
p1134
F0.0
sS'44103'
p1135
F0.0
sS'23051'
p1136
F0.0
sS'95241'
p1137
F0.0
sS'64160'
p1138
F0.0
sS'62154'
p1139
F0.0
sS'62153'
p1140
F0.0
sS'62152'
p1141
F0.0
sS'62151'
p1142
F0.0
sS'47111'
p1143
F0.0
sS'27059'
p1144
F0.0
sS'27058'
p1145
F0.0
sS'68167'
p1146
F0.0
sS'92237'
p1147
F0.0
sS'57139'
p1148
F0.0
sS'44096'
p1149
F0.0
sS'94241'
p1150
F0.0
sS'92236'
p1151
F0.0
sS'60147'
p1152
F0.0
sS'66161'
p1153
F0.0
sS'50116'
p1154
F0.0
sS'50113'
p1155
F0.0
sS'22047'
p1156
F0.0
sS'94242'
p1157
F0.0
sS'50117'
p1158
F0.0
sS'2003'
p1159
F0.0
sS'66158'
p1160
F0.0
sS'29065'
p1161
F0.0
sS'58139'
p1162
F0.0
sS'29063'
p1163
F0.0
sS'2004'
p1164
F3.73532178341729e-11
sS'92241'
p1165
F0.0
sS'92232'
p1166
F0.0
sS'57138'
p1167
F0.0
sS'36078'
p1168
F0.0
sS'61148'
p1169
F0.0
ssg61
g62
sg432
S'Umetal'
p1170
sg434
Nsbag0
(g78
g2
Ntp1171
Rp1172
(dp1173
g82
F0.00104564497983658
sg83
F0.00104564497983658
sg73
g84
sg85
I01
sg86
g87
sg88
F1000000.0
sg89
(dp1174
S'58138'
p1175
F0.0
sS'48116'
p1176
F0.0
sS'66164'
p1177
F0.0
sS'48114'
p1178
F0.0
sS'48113'
p1179
F0.0
sS'48112'
p1180
F0.0
sS'48111'
p1181
F0.0
sS'21045'
p1182
F6.19262270006879e-80
sS'95243'
p1183
F0.0
sS'63151'
p1184
F0.0
sS'58136'
p1185
F0.0
sS'60146'
p1186
F1.62693108964097e-12
sS'61348'
p1187
F0.0
sS'62144'
p1188
F0.0
sS'62147'
p1189
F2.78229670260514e-14
sS'8017'
p1190
F0.0
sS'8016'
p1191
F0.0
sS'40090'
p1192
F1.44484386638461e-06
sS'40091'
p1193
F5.82497620763765e-06
sS'40096'
p1194
F7.14766924842157e-10
sS'40094'
p1195
F6.32877385561281e-09
sS'40095'
p1196
F2.39906762883911e-11
sS'46102'
p1197
F0.0
sS'96250'
p1198
F0.0
sS'46106'
p1199
F0.0
sS'46107'
p1200
F0.0
sS'46104'
p1201
F0.0
sS'46105'
p1202
F0.0
sS'63154'
p1203
F0.0
sS'63155'
p1204
F0.0
sS'46108'
p1205
F0.0
sS'48110'
p1206
F0.0
sS'28058'
p1207
F0.0
sS'28059'
p1208
F0.0
sS'63152'
p1209
F0.0
sS'58140'
p1210
F1.19668377106582e-05
sS'54131'
p1211
F4.52041308635622e-05
sS'64153'
p1212
F0.0
sS'64152'
p1213
F0.0
sS'64155'
p1214
F0.0
sS'60148'
p1215
F0.0
sS'64157'
p1216
F0.0
sS'60144'
p1217
F8.84689872681514e-10
sS'57140'
p1218
F1.53562071225085e-08
sS'56136'
p1219
F0.0
sS'58142'
p1220
F1.84393583289177e-07
sS'96245'
p1221
F0.0
sS'34082'
p1222
F0.0
sS'46110'
p1223
F0.0
sS'42100'
p1224
F1.11289677795932e-14
sS'48106'
p1225
F0.0
sS'48108'
p1226
F0.0
sS'63153'
p1227
F0.0
sS'42097'
p1228
F1.24778334860867e-11
sS'14028'
p1229
F0.0
sS'41093'
p1230
F4.91431749121655e-15
sS'24050'
p1231
F0.0
sS'24052'
p1232
F0.0
sS'24053'
p1233
F0.0
sS'24054'
p1234
F0.0
sS'54126'
p1235
F1.33298197182211e-13
sS'54124'
p1236
F2.57296642975783e-29
sS'65159'
p1237
F0.0
sS'58144'
p1238
F2.50446685326837e-10
sS'54129'
p1239
F1.39340022286412e-12
sS'54128'
p1240
F5.63206964317207e-08
sS'58141'
p1241
F1.72730562774629e-08
sS'56138'
p1242
F8.23318408060853e-05
sS'58143'
p1243
F1.13995279081918e-11
sS'41094'
p1244
F0.0
sS'20043'
p1245
F4.17744000709206e-70
sS'20042'
p1246
F4.29274653143264e-75
sS'34080'
p1247
F0.0
sS'20040'
p1248
F0.0
sS'41095'
p1249
F1.30208476761188e-11
sS'20046'
p1250
F0.0
sS'11023'
p1251
F2.11550338163947e-109
sS'20044'
p1252
F5.35007597865906e-80
sS'60145'
p1253
F2.82158644812847e-11
sS'20048'
p1254
F0.0
sS'67165'
p1255
F0.0
sS'35079'
p1256
F7.51946333965813e-17
sS'68164'
p1257
F0.0
sS'92240'
p1258
F0.0
sS'51123'
p1259
F0.0
sS'59143'
p1260
F1.12292052206028e-10
sS'68166'
p1261
F0.0
sS'90234'
p1262
F0.0
sS'5010'
p1263
F0.0
sS'5011'
p1264
F0.0
sS'65160'
p1265
F0.0
sS'52126'
p1266
F0.0
sS'52120'
p1267
F0.0
sS'52123'
p1268
F2.95659559671233e-42
sS'52122'
p1269
F8.95137601465122e-48
sS'94237'
p1270
F0.0
sS'94236'
p1271
F0.0
sS'25055'
p1272
F0.0
sS'52128'
p1273
F0.0
sS'40092'
p1274
F8.22803907987981e-07
sS'95244'
p1275
F0.0
sS'40093'
p1276
F1.61787510544663e-07
sS'54134'
p1277
F0.00011324422798044
sS'54135'
p1278
F3.0371946462061e-08
sS'54136'
p1279
F9.76335243654949e-05
sS'54130'
p1280
F2.99018737252401e-07
sS'9019'
p1281
F0.0
sS'54132'
p1282
F6.82622112321844e-05
sS'54133'
p1283
F3.52308067021979e-07
sS'32072'
p1284
F0.0
sS'39089'
p1285
F3.8311525746483e-05
sS'93237'
p1286
F0.0
sS'91233'
p1287
F0.0
sS'93235'
p1288
F0.0
sS'55137'
p1289
F7.34970372522789e-05
sS'55136'
p1290
F0.0
sS'55135'
p1291
F0.000102167376181506
sS'55134'
p1292
F0.0
sS'55133'
p1293
F8.1174121040428e-05
sS'64154'
p1294
F0.0
sS'56132'
p1295
F0.0
sS'49115'
p1296
F0.0
sS'56130'
p1297
F0.0
sS'13027'
p1298
F0.0
sS'56137'
p1299
F4.3544439750357e-06
sS'31069'
p1300
F0.0
sS'49113'
p1301
F0.0
sS'90233'
p1302
F0.0
sS'90232'
p1303
F0.0
sS'45105'
p1304
F0.0
sS'90230'
p1305
F0.0
sS'45103'
p1306
F0.0
sS'39091'
p1307
F2.58392201529129e-07
sS'47310'
p1308
F0.0
sS'52132'
p1309
F0.0
sS'17035'
p1310
F2.84534363674829e-113
sS'52130'
p1311
F0.0
sS'17037'
p1312
F4.15360692255773e-94
sS'92235'
p1313
F0.0
sS'94239'
p1314
F0.0
sS'61149'
p1315
F0.0
sS'93239'
p1316
F0.0
sS'16036'
p1317
F0.0
sS'56133'
p1318
F0.0
sS'95342'
p1319
F0.0
sS'63156'
p1320
F0.0
sS'95344'
p1321
F0.0
sS'53130'
p1322
F0.0
sS'51125'
p1323
F0.0
sS'91231'
p1324
F0.0
sS'91232'
p1325
F0.0
sS'53129'
p1326
F0.0
sS'96240'
p1327
F0.0
sS'96241'
p1328
F0.0
sS'96242'
p1329
F0.0
sS'51121'
p1330
F5.35876604507956e-62
sS'68168'
p1331
F0.0
sS'16033'
p1332
F0.0
sS'15031'
p1333
F0.0
sS'90228'
p1334
F8.77769882433135e-25
sS'90229'
p1335
F1.33754891673727e-21
sS'19041'
p1336
F2.95542778380541e-72
sS'19040'
p1337
F0.0
sS'44104'
p1338
F0.0
sS'44105'
p1339
F0.0
sS'44106'
p1340
F0.0
sS'50119'
p1341
F0.0
sS'44100'
p1342
F2.68849042513358e-33
sS'44101'
p1343
F0.0
sS'44102'
p1344
F0.0
sS'16032'
p1345
F0.0
sS'50112'
p1346
F0.0
sS'31071'
p1347
F0.0
sS'52125'
p1348
F2.88968965202257e-19
sS'38089'
p1349
F1.46290166607563e-06
sS'1003'
p1350
F0.0
sS'1002'
p1351
F0.0
sS'1001'
p1352
F0.0
sS'50115'
p1353
F0.0
sS'96247'
p1354
F0.0
sS'14030'
p1355
F0.0
sS'63157'
p1356
F0.0
sS'52124'
p1357
F0.0
sS'62150'
p1358
F0.0
sS'59142'
p1359
F0.0
sS'3007'
p1360
F0.0
sS'3006'
p1361
F1.51369616785267e-07
sS'60150'
p1362
F0.0
sS'93238'
p1363
F0.0
sS'54123'
p1364
F5.52100691221414e-46
sS'32070'
p1365
F0.0
sS'7014'
p1366
F0.0
sS'7015'
p1367
F0.0
sS'32074'
p1368
F0.0
sS'32076'
p1369
F0.0
sS'50126'
p1370
F0.0
sS'50125'
p1371
F0.0
sS'50124'
p1372
F0.0
sS'50123'
p1373
F0.0
sS'50122'
p1374
F0.0
sS'33074'
p1375
F0.0
sS'33075'
p1376
F0.0
sS'68170'
p1377
F0.0
sS'94238'
p1378
F0.0
sS'37087'
p1379
F2.75788812714894e-05
sS'37086'
p1380
F0.0
sS'37085'
p1381
F1.16384209912889e-05
sS'30064'
p1382
F0.0
sS'38090'
p1383
F2.23106004353167e-05
sS'52329'
p1384
F0.0
sS'52327'
p1385
F0.0
sS'53135'
p1386
F0.0
sS'32073'
p1387
F0.0
sS'11022'
p1388
F0.0
sS'66156'
p1389
F0.0
sS'53131'
p1390
F0.0
sS'18040'
p1391
F7.28085447041576e-74
sS'96244'
p1392
F0.0
sS'56140'
p1393
F1.16678831246978e-07
sS'34077'
p1394
F6.48510167132962e-24
sS'34076'
p1395
F0.0
sS'34074'
p1396
F0.0
sS'34079'
p1397
F0.0
sS'34078'
p1398
F0.0
sS'96246'
p1399
F0.0
sS'12024'
p1400
F0.0
sS'12025'
p1401
F0.0
sS'12026'
p1402
F0.0
sS'22046'
p1403
F0.0
sS'60142'
p1404
F0.0
sS'60143'
p1405
F1.04298551750394e-08
sS'68162'
p1406
F0.0
sS'64158'
p1407
F0.0
sS'94244'
p1408
F0.0
sS'22049'
p1409
F0.0
sS'22048'
p1410
F0.0
sS'44098'
p1411
F0.0
sS'44099'
p1412
F4.30512577049028e-19
sS'50120'
p1413
F0.0
sS'95242'
p1414
F0.0
sS'96243'
p1415
F0.0
sS'56134'
p1416
F0.0
sS'38086'
p1417
F0.0
sS'38087'
p1418
F1.04141225699967e-15
sS'38084'
p1419
F0.0
sS'18036'
p1420
F2.18216470003458e-95
sS'48315'
p1421
F0.0
sS'53127'
p1422
F6.60541888578539e-17
sS'61147'
p1423
F3.40772393957481e-14
sS'51124'
p1424
F0.0
sS'28064'
p1425
F0.0
sS'51126'
p1426
F0.0
sS'16034'
p1427
F0.0
sS'28061'
p1428
F0.0
sS'28060'
p1429
F0.0
sS'38088'
p1430
F3.64308989112255e-05
sS'28062'
p1431
F0.0
sS'64156'
p1432
F0.0
sS'92233'
p1433
F0.0
sS'43099'
p1434
F1.05834023692485e-14
sS'62148'
p1435
F0.0
sS'92234'
p1436
F0.0
sS'96248'
p1437
F0.0
sS'50114'
p1438
F0.0
sS'56135'
p1439
F7.71733813133449e-11
sS'66162'
p1440
F0.0
sS'96249'
p1441
F0.0
sS'36080'
p1442
F2.07431432524958e-11
sS'47107'
p1443
F0.0
sS'6012'
p1444
F0.0
sS'39090'
p1445
F5.64759038633213e-09
sS'22050'
p1446
F0.0
sS'92239'
p1447
F0.0
sS'35081'
p1448
F1.16644389275837e-18
sS'93236'
p1449
F0.0
sS'36082'
p1450
F3.9004471920635e-08
sS'36083'
p1451
F6.19587505951839e-06
sS'36084'
p1452
F1.12816961724837e-05
sS'18038'
p1453
F2.65858601398303e-79
sS'36086'
p1454
F2.04233976120799e-05
sS'42092'
p1455
F0.0
sS'4009'
p1456
F0.0
sS'62149'
p1457
F0.0
sS'94243'
p1458
F0.0
sS'90227'
p1459
F9.66758368700045e-30
sS'47109'
p1460
F0.0
sS'59141'
p1461
F6.76952886018988e-07
sS'66163'
p1462
F0.0
sS'50118'
p1463
F0.0
sS'36085'
p1464
F3.30040940634714e-06
sS'26058'
p1465
F0.0
sS'61151'
p1466
F0.0
sS'42094'
p1467
F0.0
sS'42095'
p1468
F4.56618728064302e-10
sS'42096'
p1469
F0.0
sS'19039'
p1470
F7.88676611595189e-82
sS'42098'
p1471
F1.44117893385969e-11
sS'42099'
p1472
F2.33053686806643e-17
sS'26056'
p1473
F0.0
sS'26057'
p1474
F0.0
sS'26054'
p1475
F0.0
sS'92238'
p1476
F0.0
sS'14029'
p1477
F0.0
sS'94240'
p1478
F0.0
sS'67366'
p1479
F0.0
sS'66160'
p1480
F0.0
sS'44103'
p1481
F0.0
sS'23051'
p1482
F0.0
sS'95241'
p1483
F0.0
sS'64160'
p1484
F0.0
sS'62154'
p1485
F0.0
sS'62153'
p1486
F0.0
sS'62152'
p1487
F0.0
sS'62151'
p1488
F0.0
sS'47111'
p1489
F0.0
sS'27059'
p1490
F0.0
sS'27058'
p1491
F0.0
sS'68167'
p1492
F0.0
sS'92237'
p1493
F0.0
sS'57139'
p1494
F3.35196040649491e-05
sS'44096'
p1495
F0.0
sS'94241'
p1496
F0.0
sS'92236'
p1497
F0.0
sS'60147'
p1498
F5.34124261119277e-16
sS'66161'
p1499
F0.0
sS'50116'
p1500
F0.0
sS'50113'
p1501
F0.0
sS'22047'
p1502
F0.0
sS'94242'
p1503
F0.0
sS'50117'
p1504
F0.0
sS'2003'
p1505
F2.82828180947245e-06
sS'66158'
p1506
F0.0
sS'29065'
p1507
F0.0
sS'58139'
p1508
F0.0
sS'29063'
p1509
F0.0
sS'2004'
p1510
F0.000139985854582333
sS'92241'
p1511
F0.0
sS'92232'
p1512
F0.0
sS'57138'
p1513
F0.0
sS'36078'
p1514
F1.88213916657782e-18
sS'61148'
p1515
F0.0
ssg61
g62
sg432
S'offgastank'
p1516
sg434
Nsbag0
(g78
g2
Ntp1517
Rp1518
(dp1519
g82
F0.193908018946421
sg83
F0.193908018946421
sg73
g84
sg85
I01
sg86
g87
sg88
F1000000.0
sg89
(dp1520
S'58138'
p1521
F7.50308393506352e-15
sS'48116'
p1522
F3.05200344532487e-08
sS'66164'
p1523
F1.89130813151437e-10
sS'48114'
p1524
F7.81290549849195e-08
sS'48113'
p1525
F1.34712926472337e-09
sS'48112'
p1526
F5.29806984918693e-08
sS'48111'
p1527
F1.34859264264622e-07
sS'21045'
p1528
F2.31618377425351e-66
sS'95243'
p1529
F1.48545023187657e-07
sS'63151'
p1530
F1.91910117974584e-09
sS'58136'
p1531
F2.04454319825845e-25
sS'60146'
p1532
F2.96691854950966e-06
sS'61348'
p1533
F3.85063440244807e-10
sS'62144'
p1534
F4.54489042921151e-22
sS'62147'
p1535
F1.01260331145822e-06
sS'8017'
p1536
F7.40142852702731e-10
sS'8016'
p1537
F1.33431230890737e-06
sS'40090'
p1538
F2.03973321210691e-07
sS'40091'
p1539
F3.6533671613195e-06
sS'40096'
p1540
F5.74416883210468e-06
sS'40094'
p1541
F5.57621146943813e-06
sS'40095'
p1542
F3.38573258487284e-08
sS'46102'
p1543
F4.71650385386187e-15
sS'96250'
p1544
F9.04940271370299e-23
sS'46106'
p1545
F1.76986013063315e-06
sS'46107'
p1546
F1.37432927509121e-06
sS'46104'
p1547
F7.76552226838914e-07
sS'46105'
p1548
F2.64920074488511e-06
sS'63154'
p1549
F4.99031891936338e-08
sS'63155'
p1550
F1.85173454764044e-08
sS'46108'
p1551
F8.97564619638216e-07
sS'48110'
p1552
F8.42047418564632e-08
sS'28058'
p1553
F9.25920037475216e-46
sS'28059'
p1554
F1.25880960176486e-38
sS'63152'
p1555
F3.83370455937112e-10
sS'58140'
p1556
F5.05645576123572e-06
sS'54131'
p1557
F3.63254978141804e-08
sS'64153'
p1558
F8.23605055452729e-12
sS'64152'
p1559
F5.13509017316679e-10
sS'64155'
p1560
F6.01873013958172e-09
sS'60148'
p1561
F1.68276155001232e-06
sS'64157'
p1562
F1.06759884229973e-09
sS'60144'
p1563
F5.02710637077995e-06
sS'57140'
p1564
F1.89959097895779e-10
sS'56136'
p1565
F3.70084424990956e-08
sS'58142'
p1566
F5.36277729160046e-06
sS'96245'
p1567
F9.76699560667534e-10
sS'34082'
p1568
F2.82921660613968e-07
sS'46110'
p1569
F2.84139712608207e-07
sS'42100'
p1570
F6.42479432488185e-06
sS'48106'
p1571
F3.70086657841004e-20
sS'48108'
p1572
F2.63233270495661e-13
sS'63153'
p1573
F4.30234434943861e-07
sS'42097'
p1574
F3.58969331638867e-06
sS'14028'
p1575
F1.78318793552336e-101
sS'41093'
p1576
F3.3129799838981e-13
sS'24050'
p1577
F1.50422717097455e-63
sS'24052'
p1578
F2.48026148705956e-46
sS'24053'
p1579
F2.58052731884823e-46
sS'24054'
p1580
F3.10615661880801e-41
sS'54126'
p1581
F2.18944910638228e-17
sS'54124'
p1582
F1.22451716821751e-36
sS'65159'
p1583
F1.0190669062244e-08
sS'58144'
p1584
F4.71283929652919e-07
sS'54129'
p1585
F5.38656240534172e-14
sS'54128'
p1586
F1.07925743359285e-13
sS'58141'
p1587
F8.83104154707132e-09
sS'56138'
p1588
F8.45320865808162e-07
sS'58143'
p1589
F1.25479633468186e-13
sS'41094'
p1590
F5.9714592760305e-12
sS'20043'
p1591
F8.85851837357252e-70
sS'20042'
p1592
F1.56841977772267e-73
sS'34080'
p1593
F1.13218582553362e-07
sS'20040'
p1594
F9.54462104766732e-94
sS'41095'
p1595
F2.76662950249236e-08
sS'20046'
p1596
F2.3604734201772e-61
sS'11023'
p1597
F6.44888820827323e-111
sS'20044'
p1598
F6.95353539484333e-66
sS'60145'
p1599
F3.21227279022937e-06
sS'20048'
p1600
F1.70602452565474e-67
sS'67165'
p1601
F1.83037102076626e-10
sS'35079'
p1602
F2.28096260442116e-11
sS'68164'
p1603
F1.8362939891018e-15
sS'92240'
p1604
F3.65714937065908e-19
sS'51123'
p1605
F3.03089544718003e-08
sS'59143'
p1606
F1.66225666187232e-09
sS'68166'
p1607
F2.20452324944097e-11
sS'90234'
p1608
F1.32481814969341e-13
sS'5010'
p1609
F1.07003551063635e-16
sS'5011'
p1610
F9.60893842994959e-16
sS'65160'
p1611
F1.4479011605158e-11
sS'52126'
p1612
F3.51428268126055e-09
sS'52120'
p1613
F2.1639944715953e-18
sS'52123'
p1614
F1.40163594522591e-12
sS'52122'
p1615
F2.67273767505525e-10
sS'94237'
p1616
F5.00283993481895e-15
sS'94236'
p1617
F2.75292337464215e-15
sS'25055'
p1618
F7.31531747182058e-39
sS'52128'
p1619
F4.47603376346428e-07
sS'40092'
p1620
F4.51176551122967e-06
sS'95244'
p1621
F1.97982760953807e-17
sS'40093'
p1622
F4.80711211332258e-06
sS'54134'
p1623
F7.4317157840648e-10
sS'54135'
p1624
F5.73584610375414e-15
sS'54136'
p1625
F9.92959057975578e-12
sS'54130'
p1626
F1.50473100316766e-11
sS'9019'
p1627
F0.116909351774046
sS'54132'
p1628
F2.2492072061544e-08
sS'54133'
p1629
F1.61357463746554e-11
sS'32072'
p1630
F3.98020077737995e-11
sS'39089'
p1631
F7.37326964180324e-07
sS'93237'
p1632
F5.31604769038249e-07
sS'91233'
p1633
F1.83040527942947e-14
sS'93235'
p1634
F3.45441780732043e-16
sS'55137'
p1635
F9.65423732412323e-07
sS'55136'
p1636
F5.78861344208332e-12
sS'55135'
p1637
F1.35213190697717e-08
sS'55134'
p1638
F9.69026340067302e-11
sS'55133'
p1639
F6.68546966648671e-09
sS'64154'
p1640
F1.89416830329797e-08
sS'56132'
p1641
F1.21852058064035e-15
sS'49115'
p1642
F9.73433781488241e-09
sS'56130'
p1643
F4.71973861334165e-25
sS'13027'
p1644
F1.1603848359853e-101
sS'56137'
p1645
F7.64533832160905e-08
sS'31069'
p1646
F6.653846558059e-12
sS'49113'
p1647
F2.32079720631395e-13
sS'90233'
p1648
F8.99140793400383e-26
sS'90232'
p1649
F1.30498437423074e-12
sS'45105'
p1650
F1.19951100233511e-13
sS'90230'
p1651
F1.92507742300915e-14
sS'45103'
p1652
F3.78812376241048e-06
sS'39091'
p1653
F1.75005432801645e-08
sS'47310'
p1654
F6.00873518438496e-10
sS'52132'
p1655
F1.12745976153133e-11
sS'17035'
p1656
F3.03421651797311e-87
sS'52130'
p1657
F1.97483924815724e-06
sS'17037'
p1658
F1.59415597582092e-82
sS'92235'
p1659
F0.000150549014369161
sS'94239'
p1660
F3.11199791801246e-05
sS'61149'
p1661
F4.59358599193364e-13
sS'93239'
p1662
F3.66894752959791e-11
sS'16036'
p1663
F3.9792440281589e-81
sS'56133'
p1664
F1.09716944714032e-15
sS'95342'
p1665
F2.89115293834433e-09
sS'63156'
p1666
F1.26855701604589e-10
sS'95344'
p1667
F5.47132556105791e-19
sS'53130'
p1668
F6.87391524425911e-17
sS'51125'
p1669
F3.15045290892166e-08
sS'91231'
p1670
F5.52210855265153e-13
sS'91232'
p1671
F6.25982999863451e-21
sS'53129'
p1672
F8.03711435451694e-07
sS'96240'
p1673
F3.13575092728862e-20
sS'96241'
p1674
F2.02565579467271e-17
sS'96242'
p1675
F1.14397670035695e-08
sS'51121'
p1676
F1.89983985766849e-08
sS'68168'
p1677
F9.39187232518711e-12
sS'16033'
p1678
F3.0695958627932e-90
sS'15031'
p1679
F1.27797137926971e-95
sS'90228'
p1680
F1.54514350102585e-15
sS'90229'
p1681
F1.19047912718219e-16
sS'19041'
p1682
F8.25478144797723e-76
sS'19040'
p1683
F2.19866357080548e-84
sS'44104'
p1684
F3.53450912522655e-06
sS'44105'
p1685
F9.86406749884242e-16
sS'44106'
p1686
F3.48287190872702e-07
sS'50119'
p1687
F2.4179347166921e-08
sS'44100'
p1688
F2.71093102532399e-07
sS'44101'
p1689
F5.36815127252916e-06
sS'44102'
p1690
F5.11703853864918e-06
sS'16032'
p1691
F1.31401510937954e-93
sS'50112'
p1692
F2.49020009774109e-18
sS'31071'
p1693
F2.89778911985141e-11
sS'52125'
p1694
F2.71323906584418e-08
sS'38089'
p1695
F2.66890756049686e-09
sS'1003'
p1696
F1.20908984676944e-06
sS'1002'
p1697
F4.7827253737657e-09
sS'1001'
p1698
F1.0730298727456e-14
sS'50115'
p1699
F7.37925908345562e-10
sS'96247'
p1700
F2.22193007366469e-13
sS'14030'
p1701
F6.91348407069849e-94
sS'63157'
p1702
F1.60625468553662e-16
sS'52124'
p1703
F4.5571456386093e-10
sS'62150'
p1704
F1.16370839133358e-06
sS'59142'
p1705
F5.24859778476678e-16
sS'3007'
p1706
F0.055373535067763
sS'3006'
p1707
F1.71306488526074e-06
sS'60150'
p1708
F7.87377056578139e-07
sS'93238'
p1709
F8.36712329089404e-14
sS'54123'
p1710
F1.65631736464774e-55
sS'32070'
p1711
F3.41184360758698e-14
sS'7014'
p1712
F4.32996802900041e-15
sS'7015'
p1713
F3.6899560202836e-07
sS'32074'
p1714
F4.79669883727596e-10
sS'32076'
p1715
F3.06148368913774e-09
sS'50126'
p1716
F1.11375620489952e-07
sS'50125'
p1717
F5.75832595017647e-12
sS'50124'
p1718
F5.034133461462e-08
sS'50123'
p1719
F3.46391844799332e-10
sS'50122'
p1720
F2.75581558760376e-08
sS'33074'
p1721
F1.75284059058571e-18
sS'33075'
p1722
F1.17236417026951e-09
sS'68170'
p1723
F7.16363428378535e-13
sS'94238'
p1724
F1.68180514593142e-07
sS'37087'
p1725
F2.1199828900564e-08
sS'37086'
p1726
F5.71308132032277e-14
sS'37085'
p1727
F3.14883256938226e-09
sS'30064'
p1728
F1.28153130694331e-22
sS'38090'
p1729
F2.43621448494969e-06
sS'52329'
p1730
F7.65897037345478e-13
sS'52327'
p1731
F8.57684109271439e-11
sS'53135'
p1732
F4.1164871044166e-15
sS'32073'
p1733
F1.75627274708216e-10
sS'11022'
p1734
F1.35294236992163e-120
sS'66156'
p1735
F3.4551385551765e-19
sS'53131'
p1736
F2.4635966782032e-10
sS'18040'
p1737
F3.55259485439539e-81
sS'96244'
p1738
F2.39531355347374e-08
sS'56140'
p1739
F1.25385751145612e-09
sS'34077'
p1740
F4.41248915833495e-09
sS'34076'
p1741
F1.50478674146667e-11
sS'34074'
p1742
F7.99528839890808e-16
sS'34079'
p1743
F4.21230770276283e-08
sS'34078'
p1744
F1.9525736519327e-08
sS'96246'
p1745
F3.49098241493399e-11
sS'12024'
p1746
F8.91577023270048e-109
sS'12025'
p1747
F8.45761694586393e-108
sS'12026'
p1748
F2.25642978433347e-103
sS'22046'
p1749
F3.1017987639471e-67
sS'60142'
p1750
F4.1075772527367e-08
sS'60143'
p1751
F4.6171381419011e-06
sS'68162'
p1752
F2.52035006724401e-19
sS'64158'
p1753
F2.21818070221853e-07
sS'94244'
p1754
F1.38830187635247e-11
sS'22049'
p1755
F6.99553965439236e-54
sS'22048'
p1756
F2.11480406303376e-56
sS'44098'
p1757
F5.67607803591039e-16
sS'44099'
p1758
F2.42232117085945e-10
sS'50120'
p1759
F2.34023971579599e-08
sS'95242'
p1760
F3.94473498553618e-14
sS'96243'
p1761
F4.37947502811568e-10
sS'56134'
p1762
F1.49293619546915e-10
sS'38086'
p1763
F7.65333784480689e-11
sS'38087'
p1764
F1.08739084069648e-11
sS'38084'
p1765
F1.38103506729149e-16
sS'18036'
p1766
F4.30330884538161e-99
sS'48315'
p1767
F6.0358341772013e-12
sS'53127'
p1768
F9.992070278976e-08
sS'61147'
p1769
F8.51238200244506e-07
sS'51124'
p1770
F6.51656280039068e-12
sS'28064'
p1771
F2.80429369934551e-22
sS'51126'
p1772
F8.05884851801915e-13
sS'16034'
p1773
F9.40598296837797e-90
sS'28061'
p1774
F3.40357923255484e-25
sS'28060'
p1775
F6.05651545668419e-31
sS'38088'
p1776
F4.23561051480313e-08
sS'28062'
p1777
F1.32713045032901e-23
sS'64156'
p1778
F3.15471019890282e-07
sS'92233'
p1779
F1.19287093920794e-12
sS'43099'
p1780
F5.56300785751442e-06
sS'62148'
p1781
F3.48029338458825e-07
sS'92234'
p1782
F3.79398465882721e-09
sS'96248'
p1783
F7.34345115981706e-15
sS'50114'
p1784
F1.33239222478994e-14
sS'56135'
p1785
F4.10174058483317e-12
sS'66162'
p1786
F7.45282054410558e-10
sS'96249'
p1787
F4.65167929025043e-26
sS'36080'
p1788
F1.91401797149394e-16
sS'47107'
p1789
F4.37347050617702e-13
sS'6012'
p1790
F3.76746652354302e-14
sS'39090'
p1791
F6.17963554983095e-10
sS'22050'
p1792
F5.0663818125678e-53
sS'92239'
p1793
F1.73142221053739e-16
sS'35081'
p1794
F1.88649340941948e-07
sS'93236'
p1795
F3.85455198004956e-13
sS'36082'
p1796
F3.82486869203575e-12
sS'36083'
p1797
F7.82063757457639e-11
sS'36084'
p1798
F3.03088137976461e-11
sS'18038'
p1799
F3.66882530089614e-86
sS'36086'
p1800
F2.59271266349016e-12
sS'42092'
p1801
F1.93644559178444e-20
sS'4009'
p1802
F0.0123045750746028
sS'62149'
p1803
F3.01842839096614e-08
sS'94243'
p1804
F2.48490299291759e-16
sS'90227'
p1805
F2.75100241021715e-22
sS'47109'
p1806
F4.86420841925947e-07
sS'59141'
p1807
F5.2707174211722e-06
sS'66163'
p1808
F4.58819997912646e-10
sS'50118'
p1809
F2.39490360914426e-08
sS'36085'
p1810
F9.49400056847867e-13
sS'26058'
p1811
F3.53381886621271e-31
sS'61151'
p1812
F8.29084599796954e-15
sS'42094'
p1813
F6.44313219541364e-12
sS'42095'
p1814
F5.55832057347446e-06
sS'42096'
p1815
F1.22058720303835e-07
sS'19039'
p1816
F2.24594669822332e-87
sS'42098'
p1817
F5.7335216169334e-06
sS'42099'
p1818
F6.8029582947962e-12
sS'26056'
p1819
F1.40386668931767e-39
sS'26057'
p1820
F3.57562644152793e-37
sS'26054'
p1821
F1.18704549349694e-53
sS'92238'
p1822
F0.00897163136359691
sS'14029'
p1823
F6.47782191033445e-98
sS'94240'
p1824
F1.04585904533866e-05
sS'67366'
p1825
F1.68707505186194e-13
sS'66160'
p1826
F5.8075011143522e-10
sS'44103'
p1827
F1.18859590064869e-08
sS'23051'
p1828
F2.00330753284154e-48
sS'95241'
p1829
F5.70763912130004e-07
sS'64160'
p1830
F9.25751278632397e-08
sS'62154'
p1831
F1.5120548964365e-07
sS'62153'
p1832
F1.39587696941796e-13
sS'62152'
p1833
F5.87839699530769e-07
sS'62151'
p1834
F1.18406889105932e-07
sS'47111'
p1835
F1.09399326860564e-11
sS'27059'
p1836
F1.44082918179266e-32
sS'27058'
p1837
F4.29730682022351e-41
sS'68167'
p1838
F3.59219311035221e-12
sS'92237'
p1839
F5.75256951137036e-11
sS'57139'
p1840
F3.70011220497673e-06
sS'44096'
p1841
F2.42315814895134e-26
sS'94241'
p1842
F4.58169327471643e-06
sS'92236'
p1843
F1.29564539958996e-05
sS'60147'
p1844
F3.78665872655389e-10
sS'66161'
p1845
F5.51067365315427e-10
sS'50116'
p1846
F6.34788721772965e-09
sS'50113'
p1847
F6.33562017009829e-21
sS'22047'
p1848
F1.02598112163194e-59
sS'94242'
p1849
F1.09162092324181e-06
sS'50117'
p1850
F2.65097587704065e-08
sS'2003'
p1851
F1.28090457745645e-07
sS'66158'
p1852
F8.65361508678364e-17
sS'29065'
p1853
F1.81780635946415e-15
sS'58139'
p1854
F1.97564813355889e-13
sS'29063'
p1855
F9.15024679378778e-30
sS'2004'
p1856
F2.99522054556549e-08
sS'92241'
p1857
F2.73374178910576e-27
sS'92232'
p1858
F1.02114709432372e-13
sS'57138'
p1859
F4.00411053491034e-11
sS'36078'
p1860
F9.13655416287203e-25
sS'61148'
p1861
F1.00308732240298e-11
ssg61
g62
sg432
S'excessfueltank'
p1862
sg434
Nsbag0
(g78
g2
Ntp1863
Rp1864
(dp1865
g82
F0.0199571324397994
sg83
F0.0199571324397994
sg73
g84
sg85
I01
sg86
g87
sg88
F1000000.0
sg89
(dp1866
S'58138'
p1867
F0.0
sS'48116'
p1868
F0.0
sS'66164'
p1869
F0.0
sS'48114'
p1870
F0.0
sS'48113'
p1871
F0.0
sS'48112'
p1872
F0.0
sS'48111'
p1873
F0.0
sS'21045'
p1874
F0.0
sS'95243'
p1875
F0.0
sS'63151'
p1876
F0.0
sS'58136'
p1877
F0.0
sS'60146'
p1878
F0.0
sS'61348'
p1879
F0.0
sS'62144'
p1880
F0.0
sS'62147'
p1881
F0.0
sS'8017'
p1882
F0.0
sS'8016'
p1883
F0.0
sS'40090'
p1884
F0.0
sS'40091'
p1885
F0.0
sS'40096'
p1886
F0.0
sS'40094'
p1887
F0.0
sS'40095'
p1888
F0.0
sS'46102'
p1889
F0.0
sS'96250'
p1890
F0.0
sS'46106'
p1891
F0.0
sS'46107'
p1892
F0.0
sS'46104'
p1893
F0.0
sS'46105'
p1894
F0.0
sS'63154'
p1895
F0.0
sS'63155'
p1896
F0.0
sS'46108'
p1897
F0.0
sS'48110'
p1898
F0.0
sS'28058'
p1899
F0.0
sS'28059'
p1900
F0.0
sS'63152'
p1901
F0.0
sS'58140'
p1902
F3.95803844278199e-50
sS'54131'
p1903
F0.0
sS'64153'
p1904
F0.0
sS'64152'
p1905
F9.97856622249497e-06
sS'64155'
p1906
F0.00073841390028737
sS'60148'
p1907
F0.0
sS'64157'
p1908
F0.000780822806723391
sS'60144'
p1909
F7.87281591250031e-35
sS'57140'
p1910
F0.0
sS'56136'
p1911
F0.0
sS'58142'
p1912
F0.0
sS'96245'
p1913
F0.0
sS'34082'
p1914
F0.0
sS'46110'
p1915
F0.0
sS'42100'
p1916
F0.0
sS'48106'
p1917
F0.0
sS'48108'
p1918
F0.0
sS'63153'
p1919
F0.0
sS'42097'
p1920
F0.0
sS'14028'
p1921
F0.0
sS'41093'
p1922
F0.0
sS'24050'
p1923
F0.0
sS'24052'
p1924
F0.0
sS'24053'
p1925
F0.0
sS'24054'
p1926
F0.0
sS'54126'
p1927
F0.0
sS'54124'
p1928
F0.0
sS'65159'
p1929
F0.0
sS'58144'
p1930
F0.0
sS'54129'
p1931
F0.0
sS'54128'
p1932
F0.0
sS'58141'
p1933
F0.0
sS'56138'
p1934
F0.0
sS'58143'
p1935
F0.0
sS'41094'
p1936
F0.0
sS'20043'
p1937
F0.0
sS'20042'
p1938
F0.0
sS'34080'
p1939
F0.0
sS'20040'
p1940
F0.0
sS'41095'
p1941
F0.0
sS'20046'
p1942
F0.0
sS'11023'
p1943
F0.0
sS'20044'
p1944
F0.0
sS'60145'
p1945
F0.0
sS'20048'
p1946
F0.0
sS'67165'
p1947
F0.0
sS'35079'
p1948
F0.0
sS'68164'
p1949
F0.0
sS'92240'
p1950
F0.0
sS'51123'
p1951
F0.0
sS'59143'
p1952
F0.0
sS'68166'
p1953
F0.0
sS'90234'
p1954
F0.0
sS'5010'
p1955
F0.0
sS'5011'
p1956
F0.0
sS'65160'
p1957
F0.0
sS'52126'
p1958
F0.0
sS'52120'
p1959
F0.0
sS'52123'
p1960
F0.0
sS'52122'
p1961
F0.0
sS'94237'
p1962
F0.0
sS'94236'
p1963
F0.0
sS'25055'
p1964
F0.0
sS'52128'
p1965
F0.0
sS'40092'
p1966
F0.0
sS'95244'
p1967
F0.0
sS'40093'
p1968
F0.0
sS'54134'
p1969
F0.0
sS'54135'
p1970
F0.0
sS'54136'
p1971
F0.0
sS'54130'
p1972
F0.0
sS'9019'
p1973
F0.0149678493298075
sS'54132'
p1974
F0.0
sS'54133'
p1975
F0.0
sS'32072'
p1976
F0.0
sS'39089'
p1977
F0.0
sS'93237'
p1978
F0.0
sS'91233'
p1979
F0.0
sS'93235'
p1980
F0.0
sS'55137'
p1981
F0.0
sS'55136'
p1982
F0.0
sS'55135'
p1983
F0.0
sS'55134'
p1984
F0.0
sS'55133'
p1985
F0.0
sS'64154'
p1986
F0.000108766371797055
sS'56132'
p1987
F0.0
sS'49115'
p1988
F0.0
sS'56130'
p1989
F0.0
sS'13027'
p1990
F0.0
sS'56137'
p1991
F0.0
sS'31069'
p1992
F0.0
sS'49113'
p1993
F0.0
sS'90233'
p1994
F0.0
sS'90232'
p1995
F0.0
sS'45105'
p1996
F0.0
sS'90230'
p1997
F0.0
sS'45103'
p1998
F0.0
sS'39091'
p1999
F0.0
sS'47310'
p2000
F0.0
sS'52132'
p2001
F0.0
sS'17035'
p2002
F0.0
sS'52130'
p2003
F0.0
sS'17037'
p2004
F0.0
sS'92235'
p2005
F0.0
sS'94239'
p2006
F0.0
sS'61149'
p2007
F0.0
sS'93239'
p2008
F0.0
sS'16036'
p2009
F0.0
sS'56133'
p2010
F0.0
sS'95342'
p2011
F0.0
sS'63156'
p2012
F0.0
sS'95344'
p2013
F0.0
sS'53130'
p2014
F0.0
sS'51125'
p2015
F0.0
sS'91231'
p2016
F0.0
sS'91232'
p2017
F0.0
sS'53129'
p2018
F0.0
sS'96240'
p2019
F0.0
sS'96241'
p2020
F0.0
sS'96242'
p2021
F0.0
sS'51121'
p2022
F0.0
sS'68168'
p2023
F0.0
sS'16033'
p2024
F0.0
sS'15031'
p2025
F0.0
sS'90228'
p2026
F0.0
sS'90229'
p2027
F0.0
sS'19041'
p2028
F0.0
sS'19040'
p2029
F0.0
sS'44104'
p2030
F0.0
sS'44105'
p2031
F0.0
sS'44106'
p2032
F0.0
sS'50119'
p2033
F0.0
sS'44100'
p2034
F0.0
sS'44101'
p2035
F0.0
sS'44102'
p2036
F0.0
sS'16032'
p2037
F0.0
sS'50112'
p2038
F0.0
sS'31071'
p2039
F0.0
sS'52125'
p2040
F0.0
sS'38089'
p2041
F0.0
sS'1003'
p2042
F0.0
sS'1002'
p2043
F0.0
sS'1001'
p2044
F0.0
sS'50115'
p2045
F0.0
sS'96247'
p2046
F0.0
sS'14030'
p2047
F0.0
sS'63157'
p2048
F0.0
sS'52124'
p2049
F0.0
sS'62150'
p2050
F0.0
sS'59142'
p2051
F0.0
sS'3007'
p2052
F0.0
sS'3006'
p2053
F0.0
sS'60150'
p2054
F0.0
sS'93238'
p2055
F0.0
sS'54123'
p2056
F0.0
sS'32070'
p2057
F0.0
sS'7014'
p2058
F0.0
sS'7015'
p2059
F0.0
sS'32074'
p2060
F0.0
sS'32076'
p2061
F0.0
sS'50126'
p2062
F0.0
sS'50125'
p2063
F0.0
sS'50124'
p2064
F0.0
sS'50123'
p2065
F0.0
sS'50122'
p2066
F0.0
sS'33074'
p2067
F0.0
sS'33075'
p2068
F0.0
sS'68170'
p2069
F0.0
sS'94238'
p2070
F0.0
sS'37087'
p2071
F0.0
sS'37086'
p2072
F0.0
sS'37085'
p2073
F0.0
sS'30064'
p2074
F0.0
sS'38090'
p2075
F0.0
sS'52329'
p2076
F0.0
sS'52327'
p2077
F0.0
sS'53135'
p2078
F0.0
sS'32073'
p2079
F0.0
sS'11022'
p2080
F0.0
sS'66156'
p2081
F0.0
sS'53131'
p2082
F0.0
sS'18040'
p2083
F0.0
sS'96244'
p2084
F0.0
sS'56140'
p2085
F0.0
sS'34077'
p2086
F0.0
sS'34076'
p2087
F0.0
sS'34074'
p2088
F0.0
sS'34079'
p2089
F0.0
sS'34078'
p2090
F0.0
sS'96246'
p2091
F0.0
sS'12024'
p2092
F0.0
sS'12025'
p2093
F0.0
sS'12026'
p2094
F0.0
sS'22046'
p2095
F0.0
sS'60142'
p2096
F0.0
sS'60143'
p2097
F0.0
sS'68162'
p2098
F0.0
sS'64158'
p2099
F0.00123933792451062
sS'94244'
p2100
F0.0
sS'22049'
p2101
F0.0
sS'22048'
p2102
F0.0
sS'44098'
p2103
F0.0
sS'44099'
p2104
F0.0
sS'50120'
p2105
F0.0
sS'95242'
p2106
F0.0
sS'96243'
p2107
F0.0
sS'56134'
p2108
F0.0
sS'38086'
p2109
F0.0
sS'38087'
p2110
F0.0
sS'38084'
p2111
F0.0
sS'18036'
p2112
F0.0
sS'48315'
p2113
F0.0
sS'53127'
p2114
F0.0
sS'61147'
p2115
F0.0
sS'51124'
p2116
F0.0
sS'28064'
p2117
F0.0
sS'51126'
p2118
F0.0
sS'16034'
p2119
F0.0
sS'28061'
p2120
F0.0
sS'28060'
p2121
F0.0
sS'38088'
p2122
F0.0
sS'28062'
p2123
F0.0
sS'64156'
p2124
F0.00102130625261051
sS'92233'
p2125
F0.0
sS'43099'
p2126
F0.0
sS'62148'
p2127
F3.19117862708489e-19
sS'92234'
p2128
F0.0
sS'96248'
p2129
F0.0
sS'50114'
p2130
F0.0
sS'56135'
p2131
F0.0
sS'66162'
p2132
F0.0
sS'96249'
p2133
F0.0
sS'36080'
p2134
F0.0
sS'47107'
p2135
F0.0
sS'6012'
p2136
F0.0
sS'39090'
p2137
F0.0
sS'22050'
p2138
F0.0
sS'92239'
p2139
F0.0
sS'35081'
p2140
F0.0
sS'93236'
p2141
F0.0
sS'36082'
p2142
F0.0
sS'36083'
p2143
F0.0
sS'36084'
p2144
F0.0
sS'18038'
p2145
F0.0
sS'36086'
p2146
F0.0
sS'42092'
p2147
F0.0
sS'4009'
p2148
F0.0
sS'62149'
p2149
F0.0
sS'94243'
p2150
F0.0
sS'90227'
p2151
F0.0
sS'47109'
p2152
F0.0
sS'59141'
p2153
F0.0
sS'66163'
p2154
F0.0
sS'50118'
p2155
F0.0
sS'36085'
p2156
F0.0
sS'26058'
p2157
F0.0
sS'61151'
p2158
F0.0
sS'42094'
p2159
F0.0
sS'42095'
p2160
F0.0
sS'42096'
p2161
F0.0
sS'19039'
p2162
F0.0
sS'42098'
p2163
F0.0
sS'42099'
p2164
F0.0
sS'26056'
p2165
F0.0
sS'26057'
p2166
F0.0
sS'26054'
p2167
F0.0
sS'92238'
p2168
F0.0
sS'14029'
p2169
F0.0
sS'94240'
p2170
F0.0
sS'67366'
p2171
F0.0
sS'66160'
p2172
F0.0
sS'44103'
p2173
F0.0
sS'23051'
p2174
F0.0
sS'95241'
p2175
F0.0
sS'64160'
p2176
F0.00109065728784055
sS'62154'
p2177
F0.0
sS'62153'
p2178
F0.0
sS'62152'
p2179
F0.0
sS'62151'
p2180
F0.0
sS'47111'
p2181
F0.0
sS'27059'
p2182
F0.0
sS'27058'
p2183
F0.0
sS'68167'
p2184
F0.0
sS'92237'
p2185
F0.0
sS'57139'
p2186
F0.0
sS'44096'
p2187
F0.0
sS'94241'
p2188
F0.0
sS'92236'
p2189
F0.0
sS'60147'
p2190
F0.0
sS'66161'
p2191
F0.0
sS'50116'
p2192
F0.0
sS'50113'
p2193
F0.0
sS'22047'
p2194
F0.0
sS'94242'
p2195
F0.0
sS'50117'
p2196
F0.0
sS'2003'
p2197
F0.0
sS'66158'
p2198
F0.0
sS'29065'
p2199
F0.0
sS'58139'
p2200
F0.0
sS'29063'
p2201
F0.0
sS'2004'
p2202
F3.19117862708489e-19
sS'92241'
p2203
F0.0
sS'92232'
p2204
F0.0
sS'57138'
p2205
F0.0
sS'36078'
p2206
F0.0
sS'61148'
p2207
F0.0
ssg61
g62
sg432
S'absorbertank'
p2208
sg434
NsbasS'holeradius'
p2209
cnumpy.core.multiarray
scalar
p2210
(cnumpy
dtype
p2211
(S'f8'
p2212
I0
I1
tp2213
Rp2214
(I3
S'<'
p2215
NNNI-1
I-1
I0
tp2216
bS'\xfd\xfc7\xd5i\xef @'
p2217
tp2218
Rp2219
sS'betaEff'
p2220
F0.00479437
sS'maxdamageflux'
p2221
F191430000000000.0
sb.