ccopy_reg
_reconstructor
p0
(cRefuelCore
SerpentInputFile
p1
c__builtin__
object
p2
Ntp3
Rp4
(dp5
S'convratio'
p6
F0.700785
sS'geometry_name'
p7
S'MSRs2_geom.inp'
p8
sS'PowerNormalization'
p9
S'set power 300000000.0\n\n'
p10
sS'volumetricflows'
p11
(lp12
(S'refuel'
p13
S'fuel'
p14
cnumpy.core.multiarray
scalar
p15
(cnumpy
dtype
p16
(S'f8'
p17
I0
I1
tp18
Rp19
(I3
S'<'
p20
NNNI-1
I-1
I0
tp21
bS'\xbcwg\x1dF\xc8t>'
p22
tp23
Rp24
tp25
a(S'absorbertank'
p26
g14
F0.0
tp27
a(S'Umetal'
p28
g14
F2.6628900834770666e-09
tp29
a(g14
S'excessfueltank'
p30
g15
(g19
S'\x84\xae\xb4\t6\x115>'
p31
tp32
Rp33
tp34
asS'num_skipped_cycles'
p35
I100
sS'ratioflows'
p36
(lp37
(g14
S'offgastank'
p38
(lp39
S'Xe'
p40
aS'Kr'
p41
aS'Ar'
p42
aS'Ne'
p43
aS'He'
p44
aS'Ra'
p45
aF0.02
tp46
asS'pitch'
p47
F34.0
sS'OffGasRate'
p48
NsS'convratiolist'
p49
(lp50
F0.700763
aF0.700785
asS'AbsorberAdditionRate'
p51
NsS'core_size'
p52
S'4m'
p53
sS'job_done'
p54
I00
sS'salt_type'
p55
S'dflibe'
p56
sS'num_particles'
p57
I10000
sS'salt_fraction'
p58
F0.225
sS'PPN'
p59
I8
sS'num_nodes'
p60
I9
sS'submitted_once'
p61
I01
sS'refuelenrichment'
p62
F0.2
sS'initial_enrichment'
p63
F0.012097
sS'keff'
p64
F1.00186
sS'power'
p65
F300000000.0
sS'tmp_or_tms'
p66
S'tmp'
p67
sS'BurnTime'
p68
(lp69
S'7.0'
p70
asS'inputfilename'
p71
S'FLiBe4mcore'
p72
sS'num_cycles'
p73
I500
sS'directory'
p74
S'.'
p75
sS'fuelvolume'
p76
F16326492.8354819
sS'pmem'
p77
NsS'case'
p78
I1
sS'xslibfiles'
p79
S'set acelib "sss_endfb7u.xsdata"\n        set nfylib "sss_endfb7.nfy"\n        set declib "sss_endfb7.dec"\n\n'
p80
sS'kefflist'
p81
(lp82
F1.00186
asS'RefuelRate'
p83
NsS'queue'
p84
S'gen5'
p85
sS'tempK'
p86
I900
sS'betalist'
p87
(lp88
F0.00667323
aF0.00669563
aF0.00673785
aF0.00658316
aF0.00660089
aF0.00653726
aF0.00641794
aF0.00640214
aF0.00636747
aF0.00635376
aF0.00624782
aF0.00625686
aF0.00627096
aF0.00609461
aF0.00620024
aF0.00617766
aF0.00617151
aF0.00608741
aF0.00612473
aF0.00607349
aF0.00597592
aF0.00586498
aF0.00592574
aF0.00592772
aF0.0059316
aF0.00601159
aF0.0058529
aF0.00588667
aF0.00577285
aF0.00577479
aF0.00587255
aF0.00574783
aF0.00576369
aF0.00576246
aF0.00563921
aF0.00568299
aF0.00568547
aF0.00560377
aF0.00567571
aF0.00561993
aF0.00554872
aF0.00559861
aF0.00566191
aF0.00555896
aF0.0055626
aF0.00550291
aF0.00546589
aF0.00550723
aF0.00542365
aF0.00540059
aF0.00547397
aF0.00536875
aF0.0054118
aF0.00539165
aF0.00542809
aF0.00544266
aF0.00546256
aF0.00528341
aF0.0053311
aF0.00536257
aF0.00534033
aF0.00528664
aF0.00540289
aF0.00538229
aF0.00528559
aF0.00530819
aF0.00528598
aF0.00524857
aF0.00533557
aF0.00531529
aF0.00532704
aF0.00527976
aF0.00515254
aF0.00529147
aF0.00531483
aF0.00515678
aF0.00521921
aF0.00518937
aF0.00531756
aF0.0052822
aF0.00526139
aF0.00518869
aF0.00524687
aF0.00515495
aF0.00516863
aF0.00510005
aF0.00519303
aF0.00522845
aF0.00510184
aF0.00529507
aF0.00518531
aF0.00506572
aF0.00508076
aF0.00512612
aF0.00518324
aF0.00514873
aF0.00514572
aF0.00514679
aF0.00507438
aF0.00506917
aF0.0051408
aF0.0050486
aF0.00506498
aF0.0050416
aF0.00506558
aF0.00508639
aF0.005029
aF0.00509214
aF0.00500792
aF0.00513589
aF0.00505391
aF0.00505151
aF0.00515078
aF0.00500454
aF0.0050746
aF0.00498885
aF0.00511636
aF0.00500844
aF0.00497914
aF0.0049717
aF0.00495332
aF0.00492745
aF0.00507578
aF0.00498477
aF0.00508634
aF0.00512193
aF0.00502572
aF0.00505717
aF0.00507546
aF0.00504697
aF0.00505074
aF0.00507043
aF0.00503763
aF0.00504606
aF0.00497019
aF0.0050472
aF0.00492111
aF0.00502268
aF0.0050176
aF0.00498782
aF0.00508821
aF0.00499196
aF0.0049941
aF0.00493728
aF0.00499316
aF0.00496161
aF0.00495055
aF0.00483356
aF0.00502122
aF0.00497704
aF0.00508069
aF0.00502187
aF0.00490993
aF0.00493949
aF0.00496149
aF0.00495203
aF0.00503274
aF0.00498312
aF0.00493673
aF0.0049391
aF0.00505842
aF0.00495064
aF0.00500426
aF0.00500062
aF0.00493423
aF0.00499473
aF0.00499166
aF0.00488545
aF0.00486437
aF0.00500325
aF0.00498101
aF0.00496494
aF0.00498116
aF0.00500518
aF0.00500569
aF0.00491894
aF0.00497873
aF0.0049391
aF0.00496632
aF0.00500242
aF0.00494537
aF0.00495808
aF0.00500249
aF0.00491689
aF0.00491773
aF0.00494416
aF0.00487707
aF0.00501405
aF0.0049711
aF0.00501645
aF0.00498746
aF0.00492525
aF0.00498671
aF0.00498209
aF0.00494523
aF0.00497623
aF0.00496533
aF0.00495508
aF0.00502194
aF0.00482032
aF0.00494661
aF0.00504233
aF0.00497803
aF0.00491443
aF0.00488374
aF0.00493309
aF0.00491654
aF0.00492025
aF0.00490666
aF0.00492837
aF0.00509664
aF0.00495264
aF0.00498968
aF0.0050437
aF0.00501133
aF0.00490952
aF0.00499393
aF0.00497956
aF0.00498219
aF0.00493509
aF0.00487893
aF0.00493348
aF0.00494596
aF0.00488112
aF0.00490434
aF0.00484046
aF0.00498396
aF0.00489463
aF0.00480443
aF0.00499453
aF0.00483771
aF0.00488325
aF0.00489443
aF0.00490338
aF0.00505175
aF0.00496988
aF0.00483683
aF0.00491096
aF0.00485556
aF0.00489635
aF0.00489042
aF0.00491728
aF0.00484483
aF0.00493575
aF0.00487842
aF0.00484495
aF0.0049288
aF0.0048661
aF0.00489905
aF0.00497114
aF0.00478796
aF0.00496188
aF0.00491997
aF0.00492464
aF0.00484604
aF0.00497227
aF0.00491657
aF0.00483481
aF0.00489745
aF0.00497524
aF0.00489896
aF0.00493445
aF0.00484887
aF0.00488108
aF0.00490039
aF0.0048932
aF0.00479968
aF0.00489214
aF0.0048791
aF0.00489137
aF0.00489717
aF0.004847
aF0.0049034
aF0.0049814
aF0.00486698
aF0.00484556
aF0.00487111
aF0.00493324
aF0.00487479
aF0.00488593
aF0.00486962
aF0.00493633
aF0.00490498
aF0.0048993
aF0.005043
aF0.00489698
aF0.00486541
aF0.00496475
aF0.00495834
aF0.00489433
aF0.00492737
aF0.0048706
aF0.00483618
aF0.00488642
aF0.00495463
aF0.00497406
aF0.00490474
aF0.00491691
aF0.00492481
aF0.00489615
aF0.00497961
aF0.00483449
aF0.00494125
aF0.00492179
aF0.00486924
aF0.00489679
aF0.00487011
aF0.00500629
aF0.00488549
aF0.0048791
aF0.00494304
aF0.00497538
aF0.00491793
aF0.00497367
aF0.00491839
aF0.00489742
aF0.00500054
aF0.00496747
aF0.00490975
aF0.00496399
aF0.00490822
aF0.00491113
aF0.00496475
aF0.00478973
aF0.0048423
aF0.00488155
aF0.00495625
aF0.00490345
aF0.00488147
aF0.00494717
aF0.00501194
aF0.00491118
aF0.00493853
aF0.00486307
aF0.00502103
aF0.00492477
aF0.00488748
aF0.00495248
aF0.00491693
aF0.00481642
aF0.00480526
aF0.00495042
aF0.00484084
aF0.00486232
aF0.00493141
aF0.00504875
aF0.00485073
aF0.0048535
aF0.00500971
aF0.0048762
aF0.00494797
aF0.00488237
aF0.00497167
aF0.00500012
aF0.00494788
aF0.00498382
aF0.00492368
aF0.00496081
aF0.00493249
aF0.00497416
aF0.00496183
aF0.00494202
aF0.00490244
aF0.00482508
aF0.00492436
aF0.00486928
aF0.00490576
aF0.00490912
aF0.00491638
aF0.00496151
aF0.0049718
aF0.0049452
aF0.00498702
aF0.00493041
aF0.00490019
aF0.00484835
aF0.00490523
aF0.00488228
aF0.00494274
aF0.00497715
aF0.00479048
aF0.00498458
aF0.00495015
aF0.00500191
aF0.00495199
aF0.00505356
aF0.00490837
aF0.00494405
aF0.00498536
aF0.00499879
aF0.00495287
aF0.00487081
aF0.00484033
aF0.00489852
aF0.00497818
aF0.00487973
aF0.00499401
aF0.00492323
aF0.00504663
aF0.00494635
aF0.00493681
aF0.00495732
aF0.00498398
aF0.00489368
aF0.00495538
aF0.00501219
aF0.00493616
aF0.00497146
aF0.00490879
aF0.0048826
aF0.00492558
aF0.00501398
aF0.004973
aF0.00500612
aF0.00494956
aF0.00493141
aF0.00503034
aF0.00490422
aF0.00499846
aF0.00504363
aF0.00499428
aF0.00492546
aF0.00496508
aF0.00486742
aF0.00489648
aF0.0048984
aF0.00496095
aF0.00495376
aF0.0048363
aF0.0050051
aF0.00503498
aF0.00507134
aF0.00501432
aF0.00491132
aF0.00494944
aF0.00489374
aF0.00491704
aF0.0048635
aF0.00501252
aF0.00498437
aF0.0048753
aF0.00500514
aF0.00491668
aF0.00486992
aF0.00504842
aF0.00506036
aF0.0049599
aF0.00489972
aF0.00492462
aF0.00491734
aF0.00497794
aF0.00494966
aF0.00491794
aF0.00492968
aF0.00493349
aF0.00495354
aF0.00498935
aF0.00501553
aF0.00483308
aF0.00493547
aF0.00496227
aF0.00493961
aF0.00495066
aF0.00494569
aF0.00495278
aF0.00493621
aF0.00492376
aF0.00509235
aF0.0049895
aF0.00501608
aF0.00493095
aF0.00494362
aF0.00497789
aF0.0049874
aF0.00496018
aF0.00488764
aF0.00494219
aF0.00489809
aF0.00496909
aF0.0049195
aF0.00492711
aF0.00497983
aF0.00494213
aF0.00503312
aF0.00501046
aF0.00498408
aF0.00488641
aF0.00493983
aF0.00494467
aF0.00499083
aF0.00494369
aF0.00500848
aF0.00501277
aF0.00498064
aF0.00494438
aF0.00497528
aF0.0049621
aF0.004972
aF0.00494736
aF0.00501536
aF0.00484101
aF0.00489238
aF0.00500806
aF0.00487157
aF0.00500046
aF0.00495598
aF0.0050252
aF0.00491525
aF0.0050514
aF0.00501581
aF0.00500019
aF0.00503453
aF0.00498095
aF0.00490122
aF0.00494577
aF0.00503142
aF0.00492311
aF0.00492792
aF0.00497074
aF0.00495621
aF0.00491586
aF0.00491175
aF0.00495431
aF0.00501316
aF0.00504565
aF0.00500448
aF0.00507229
aF0.00502536
aF0.00499965
aF0.00499328
aF0.00504135
aF0.00504388
aF0.00504963
aF0.00491377
aF0.00496624
aF0.00490703
aF0.00502577
aF0.00499458
aF0.00499175
aF0.0050218
aF0.00505143
aF0.00503547
aF0.00492571
aF0.00501604
aF0.00508371
aF0.00496167
aF0.00499793
aF0.00493755
aF0.00502868
aF0.00498419
aF0.00496415
aF0.005016
aF0.00491363
aF0.00508432
aF0.00493528
aF0.00493903
aF0.00500037
aF0.00489527
aF0.00500598
aF0.00487535
aF0.00489694
aF0.00496082
aF0.00487253
aF0.00494035
aF0.00508028
aF0.00501425
aF0.00501708
aF0.0049841
aF0.00504795
aF0.00498293
aF0.00498035
aF0.00506956
aF0.00507256
aF0.00500407
aF0.00503749
aF0.00492033
aF0.00498115
aF0.00494413
aF0.00497641
aF0.00500393
aF0.00506663
aF0.00498169
aF0.00496484
aF0.00501776
aF0.00499789
aF0.00506188
aF0.00497607
aF0.00504607
aF0.00495981
aF0.00509417
aF0.00501786
aF0.00509445
aF0.00501062
aF0.00492798
aF0.00500844
aF0.00502805
aF0.00495214
aF0.00505772
aF0.0049781
aF0.00497757
aF0.00504397
aF0.00498182
aF0.00509117
aF0.00488789
aF0.00492233
aF0.00504606
aF0.00498024
aF0.00491466
aF0.00505584
aF0.00510269
aF0.00501604
aF0.00500996
aF0.00500246
aF0.00503914
aF0.00496291
aF0.004958
aF0.00499243
aF0.00505761
aF0.00502331
aF0.00487465
aF0.00506348
aF0.0049365
aF0.00491112
aF0.00503406
aF0.00502981
aF0.00505091
aF0.00503022
aF0.0050009
aF0.00497038
aF0.00499485
aF0.00499237
aF0.00500312
aF0.00500343
aF0.00502822
aF0.00497337
aF0.0049679
aF0.00502133
aF0.00508655
aF0.00492458
aF0.00500402
aF0.00508744
aF0.00495582
aF0.00494431
aF0.0050019
aF0.00506814
aF0.0049865
aF0.00499878
aF0.0049629
aF0.00503667
aF0.00509303
aF0.00504018
aF0.00505652
aF0.00497421
aF0.00497451
aF0.00503913
aF0.00503202
aF0.00508762
aF0.00503658
aF0.00501264
aF0.00502222
aF0.00494847
aF0.00503006
aF0.00499345
aF0.00506626
aF0.00501567
aF0.00501502
aF0.0050087
aF0.00499588
aF0.00501573
aF0.00500762
aF0.00501756
aF0.0051229
aF0.00504468
aF0.00504886
aF0.00496616
aF0.00504648
aF0.00512224
aF0.0050587
aF0.00504772
aF0.00497084
aF0.00493545
aF0.00497901
aF0.00504841
aF0.00500131
aF0.00501685
aF0.00503423
aF0.00512005
aF0.00498328
aF0.00503261
aF0.00501711
aF0.00508165
aF0.00505373
aF0.00504196
aF0.00496444
aF0.00505187
aF0.00501447
aF0.00494949
aF0.00489044
aF0.00503464
aF0.00503529
aF0.00505113
aF0.00503082
aF0.0050529
aF0.00503818
aF0.00500706
aF0.00505247
aF0.00506739
aF0.00502539
aF0.00502473
aF0.00491429
aF0.00505556
aF0.00505143
aF0.00510928
aF0.00515509
aF0.00498098
aF0.00506916
aF0.00507061
aF0.00503873
aF0.00512311
aF0.00502061
aF0.00508129
aF0.00507757
aF0.00507856
aF0.00504852
aF0.00512983
aF0.00497094
aF0.00507933
aF0.00503735
aF0.00492483
aF0.00505302
aF0.00506184
aF0.00499785
aF0.00508798
aF0.00508115
aF0.0050029
aF0.00498
aF0.00505678
aF0.0050546
aF0.00506233
aF0.0051201
aF0.00496542
aF0.00501833
aF0.00513834
aF0.00510783
aF0.00508538
aF0.00520339
aF0.00508117
aF0.00500861
aF0.00506615
aF0.00506969
aF0.00504158
aF0.00512305
aF0.00503551
aF0.00502816
aF0.00513207
aF0.00507904
aF0.0050116
aF0.00504765
aF0.00507257
aF0.00507898
aF0.00505811
aF0.00516615
aF0.00505398
aF0.00504956
aF0.00505486
aF0.00506373
aF0.00514704
aF0.00521849
aF0.0049292
aF0.00509959
aF0.00504417
aF0.00508164
aF0.0049903
aF0.0050262
aF0.00497638
aF0.005071
aF0.00513756
aF0.00506337
aF0.00507229
aF0.00511034
aF0.00500737
aF0.00498444
aF0.00520367
aF0.00507735
aF0.00502545
aF0.00506007
aF0.0050801
aF0.00503555
aF0.00510685
aF0.00504846
aF0.00503897
aF0.00502188
aF0.00514451
aF0.00510267
aF0.00507
aF0.00509296
aF0.00507178
aF0.00500939
aF0.00509443
aF0.00512421
aF0.00514602
aF0.00511653
aF0.00506294
aF0.00510955
aF0.00508521
aF0.00503365
aF0.00504061
aF0.00514635
aF0.00511837
aF0.00503872
aF0.00503374
aF0.00513205
aF0.00501298
aF0.00506278
aF0.00506699
aF0.00501139
aF0.005074
aF0.00504497
aF0.00506049
aF0.00508033
aF0.00506958
aF0.00501066
aF0.00512218
aF0.00509498
aF0.00519464
aF0.00513784
aF0.00500638
aF0.00498834
aF0.00504108
aF0.00508983
aF0.00512524
aF0.00512828
aF0.00509463
aF0.00505931
aF0.00511564
aF0.0050428
aF0.00512051
aF0.00509754
aF0.00504273
aF0.00502653
aF0.00512805
aF0.00507615
aF0.00512381
aF0.00507627
aF0.00509219
aF0.00504722
aF0.00508636
aF0.00511465
aF0.00507641
aF0.00504874
aF0.00499959
aF0.00507393
aF0.00514386
aF0.00508274
aF0.00511573
aF0.00507744
aF0.00504915
aF0.00501755
aF0.00503197
aF0.00512763
aF0.00509634
aF0.00502736
aF0.00511994
aF0.00504272
aF0.00510225
aF0.00505104
aF0.00504149
aF0.00511008
aF0.00514533
aF0.00509514
aF0.00508072
aF0.00506535
aF0.00512093
aF0.00508276
aF0.00513757
aF0.00506374
aF0.00511273
aF0.00517621
aF0.00506626
aF0.00508774
aF0.00508434
aF0.00506296
aF0.00502507
aF0.00506989
aF0.00493069
aF0.00509141
aF0.00500644
aF0.00516062
aF0.00507401
aF0.00518218
aF0.00515897
aF0.00511793
aF0.00510585
aF0.00506635
aF0.00506381
aF0.00513358
aF0.00514453
aF0.00509901
aF0.00507861
aF0.00512091
aF0.00518284
aF0.00504241
aF0.00515898
aF0.00498698
aF0.0051077
aF0.0051619
aF0.00520153
aF0.0050448
aF0.00518482
aF0.00507277
aF0.0050065
aF0.00507468
aF0.00508775
aF0.00514143
aF0.00505569
aF0.00506496
aF0.00502608
aF0.00505192
aF0.005121
aF0.00497601
aF0.00512484
aF0.00515579
aF0.00517256
aF0.00519533
aF0.00515796
aF0.00505919
aF0.00513611
aF0.00513397
aF0.00506821
aF0.00508455
aF0.00505737
aF0.00503807
aF0.00515802
aF0.00511708
aF0.00512999
aF0.00499602
aF0.00515831
aF0.00503498
aF0.00516936
aF0.0051661
aF0.00504306
aF0.00508721
aF0.00504399
aF0.00508453
aF0.00506189
aF0.00512726
aF0.00515078
aF0.00508356
aF0.0051668
aF0.00511603
aF0.00520433
aF0.00509041
aF0.00512453
aF0.00513968
aF0.00515383
aF0.00509603
aF0.00503943
aF0.00510003
aF0.0050721
aF0.00511701
aF0.00515747
aF0.00510066
aF0.00510629
aF0.00509877
aF0.00505315
aF0.00511905
aF0.00508721
aF0.00503953
aF0.0050142
aF0.00509431
aF0.00510246
aF0.00517671
aF0.00513737
aF0.0051078
aF0.00515681
aF0.00513593
aF0.00512351
aF0.00510691
aF0.00511783
aF0.00506565
aF0.00515985
aF0.00519762
aF0.00508087
aF0.00508893
aF0.00505276
aF0.00518153
aF0.00513927
aF0.00510473
aF0.00511272
aF0.00521837
aF0.005099
aF0.00513882
asS'materials'
p89
(lp90
g0
(cRefuelCore
SerpentMaterial
p91
g2
Ntp92
Rp93
(dp94
S'atomdensity'
p95
F0.0832587337101026
sS'density'
p96
F0.0832587337101026
sg86
S''
p97
sS'burn'
p98
I01
sS'xstemplib'
p99
S'.09c'
p100
sS'volume'
p101
F16326500.0
sS'isotopic_content'
p102
(dp103
S'58138'
p104
F2.60465892073213e-14
sS'48116'
p105
F5.58489118624706e-08
sS'66164'
p106
F5.39022707937559e-10
sS'48114'
p107
F1.47004919038473e-07
sS'48113'
p108
F2.42067815843577e-09
sS'48112'
p109
F1.03852838909719e-07
sS'48111'
p110
F2.56004362143371e-07
sS'21045'
p111
F0.0
sS'95243'
p112
F7.86255910185955e-07
sS'63151'
p113
F1.37577548798658e-09
sS'58136'
p114
F1.80414303726643e-24
sS'60146'
p115
F5.22403917464564e-06
sS'61348'
p116
F4.76861380674697e-09
sS'62144'
p117
F1.67309036722164e-21
sS'62147'
p118
F1.63331749986679e-06
sS'8017'
p119
F1.19518753399079e-09
sS'8016'
p120
F2.13120934481524e-06
sS'40090'
p121
F4.6621692267521e-07
sS'40091'
p122
F5.86358101420746e-06
sS'40096'
p123
F9.59023330511087e-06
sS'40094'
p124
F9.29104761576418e-06
sS'40095'
p125
F2.54459840244837e-07
sS'46102'
p126
F2.1435613614707e-14
sS'96250'
p127
F1.14743511023803e-20
sS'46106'
p128
F3.3662420032417e-06
sS'46107'
p129
F2.49385180116663e-06
sS'46104'
p130
F2.30226883189204e-06
sS'46105'
p131
F4.73977297669042e-06
sS'63154'
p132
F1.66163732183631e-07
sS'63155'
p133
F4.23775374550384e-08
sS'46108'
p134
F1.68937651738037e-06
sS'48110'
p135
F2.91806417600449e-07
sS'28058'
p136
F0.0
sS'28059'
p137
F0.0
sS'63152'
p138
F1.66510909798369e-09
sS'58140'
p139
F8.49034039010464e-06
sS'54131'
p140
F8.73293324928549e-13
sS'64153'
p141
F2.77993885018928e-12
sS'64152'
p142
F6.63045123660406e-11
sS'64155'
p143
F4.4337732566594e-09
sS'60148'
p144
F2.83189086959936e-06
sS'64157'
p145
F1.90758529122331e-09
sS'60144'
p146
F8.60202865186213e-06
sS'57140'
p147
F5.95448050931819e-09
sS'56136'
p148
F6.54409437043096e-08
sS'58142'
p149
F8.97924974054266e-06
sS'96245'
p150
F1.87902628956711e-08
sS'34082'
p151
F4.69411118638018e-07
sS'46110'
p152
F5.39439658795532e-07
sS'42100'
p153
F1.08549710970729e-05
sS'48106'
p154
F1.24035644251766e-19
sS'48108'
p155
F1.31378426048799e-12
sS'63153'
p156
F8.34827678464634e-07
sS'42097'
p157
F6.0099580289649e-06
sS'14028'
p158
F0.0
sS'41093'
p159
F7.02591237348772e-13
sS'24050'
p160
F0.0
sS'24052'
p161
F0.0
sS'24053'
p162
F0.0
sS'24054'
p163
F0.0
sS'54126'
p164
F1.73771183638835e-20
sS'54124'
p165
F0.0
sS'65159'
p166
F1.53014424843665e-08
sS'58144'
p167
F9.44848543097635e-07
sS'54129'
p168
F1.02225336707384e-19
sS'54128'
p169
F2.86299121325526e-15
sS'58141'
p170
F1.20527848505831e-07
sS'56138'
p171
F1.43322154034566e-06
sS'58143'
p172
F5.07297214505081e-09
sS'41094'
p173
F1.04034036283454e-11
sS'20043'
p174
F0.0
sS'20042'
p175
F0.0
sS'34080'
p176
F1.8826203032116e-07
sS'20040'
p177
F0.0
sS'41095'
p178
F1.38082475715494e-07
sS'20046'
p179
F0.0
sS'11023'
p180
F0.0
sS'20044'
p181
F0.0
sS'60145'
p182
F5.16808738562378e-06
sS'20048'
p183
F0.0
sS'67165'
p184
F4.88595943773924e-10
sS'35079'
p185
F3.77459141987589e-11
sS'68164'
p186
F5.53845750515106e-15
sS'92240'
p187
F3.58321273907986e-14
sS'51123'
p188
F5.4311040573457e-08
sS'59143'
p189
F4.98758891264742e-08
sS'68166'
p190
F8.78909349759428e-11
sS'90234'
p191
F1.02441720326364e-13
sS'5010'
p192
F5.47974792087679e-17
sS'5011'
p193
F3.52600802466043e-15
sS'65160'
p194
F1.19413614365608e-10
sS'52126'
p195
F7.13204347813064e-09
sS'52120'
p196
F7.19246500324574e-18
sS'52123'
p197
F7.78509776750057e-12
sS'52122'
p198
F9.67076001245545e-10
sS'94237'
p199
F2.06826974651975e-13
sS'94236'
p200
F3.77786494633937e-14
sS'25055'
p201
F0.0
sS'52128'
p202
F7.71224130130987e-07
sS'40092'
p203
F7.43698401108423e-06
sS'95244'
p204
F8.83361534698985e-12
sS'40093'
p205
F7.91411337581121e-06
sS'54134'
p206
F2.18020562051884e-12
sS'54135'
p207
F1.67510432559058e-12
sS'54136'
p208
F1.86412146035711e-12
sS'54130'
p209
F1.0136084755083e-14
sS'9019'
p210
F0.0480074720699542
sS'54132'
p211
F1.33198741224363e-12
sS'54133'
p212
F1.88111507163372e-12
sS'32072'
p213
F7.53323516060655e-11
sS'39089'
p214
F1.18989760122677e-06
sS'93237'
p215
F1.41225774249352e-06
sS'91233'
p216
F5.00041956530388e-14
sS'93235'
p217
F2.41938490901732e-15
sS'55137'
p218
F1.59409187797826e-06
sS'55136'
p219
F1.80016423645716e-10
sS'55135'
p220
F1.82197529257673e-08
sS'55134'
p221
F1.52741429055824e-10
sS'55133'
p222
F6.51899323805848e-10
sS'64154'
p223
F4.73814761561667e-08
sS'56132'
p224
F2.97980282419629e-15
sS'49115'
p225
F1.23640718543534e-08
sS'56130'
p226
F2.95977022386516e-24
sS'13027'
p227
F0.0
sS'56137'
p228
F1.83972870601623e-07
sS'31069'
p229
F1.38015530861896e-11
sS'49113'
p230
F4.50804776066989e-13
sS'90233'
p231
F1.27765100074851e-18
sS'90232'
p232
F3.04519465655329e-12
sS'45105'
p233
F3.12197102485988e-09
sS'90230'
p234
F1.4324792343196e-13
sS'45103'
p235
F5.63044522146465e-06
sS'39091'
p236
F1.45513932167669e-07
sS'47310'
p237
F2.13809216046685e-09
sS'52132'
p238
F1.04040947783404e-08
sS'17035'
p239
F0.0
sS'52130'
p240
F3.35693184681661e-06
sS'17037'
p241
F0.0
sS'92235'
p242
F0.000202069832088878
sS'94239'
p243
F4.46337056765867e-05
sS'61149'
p244
F1.97906519635054e-09
sS'93239'
p245
F1.3022659257467e-07
sS'16036'
p246
F0.0
sS'56133'
p247
F3.29416005430445e-15
sS'95342'
p248
F1.61334413773906e-08
sS'63156'
p249
F3.86843146262054e-09
sS'95344'
p250
F5.67960280431089e-12
sS'53130'
p251
F1.18208610597217e-11
sS'51125'
p252
F4.59797753347261e-08
sS'91231'
p253
F1.33092280444236e-12
sS'91232'
p254
F6.66092269975263e-16
sS'53129'
p255
F1.39325552372623e-06
sS'96240'
p256
F9.7765082884923e-19
sS'96241'
p257
F5.7765963267734e-16
sS'96242'
p258
F8.66724611231994e-08
sS'51121'
p259
F3.43822011249648e-08
sS'68168'
p260
F2.38980804836877e-11
sS'16033'
p261
F0.0
sS'15031'
p262
F0.0
sS'90228'
p263
F7.28938844985665e-15
sS'90229'
p264
F1.38766717466515e-15
sS'19041'
p265
F0.0
sS'19040'
p266
F0.0
sS'44104'
p267
F6.27282044190817e-06
sS'44105'
p268
F3.95331293862268e-10
sS'44106'
p269
F5.81693850169049e-07
sS'50119'
p270
F4.46900098150181e-08
sS'44100'
p271
F8.31517174196247e-07
sS'44101'
p272
F8.92790662761336e-06
sS'44102'
p273
F9.00568183115329e-06
sS'16032'
p274
F0.0
sS'50112'
p275
F9.82078259995617e-18
sS'31071'
p276
F5.74408438716722e-11
sS'52125'
p277
F5.58700550889494e-08
sS'38089'
p278
F2.52229329167668e-08
sS'1003'
p279
F8.43078954116922e-07
sS'1002'
p280
F7.70286931155243e-09
sS'1001'
p281
F3.10125232346136e-10
sS'50115'
p282
F1.37527241972795e-09
sS'96247'
p283
F1.13458807974815e-11
sS'14030'
p284
F0.0
sS'63157'
p285
F1.84570781384864e-11
sS'52124'
p286
F1.65793481931271e-09
sS'62150'
p287
F1.94138558734512e-06
sS'59142'
p288
F6.50771928281547e-11
sS'3007'
p289
F0.0227390818501138
sS'3006'
p290
F6.15351230718547e-07
sS'60150'
p291
F1.35797706083612e-06
sS'93238'
p292
F7.52279912468498e-10
sS'54123'
p293
F0.0
sS'32070'
p294
F1.3887129614131e-13
sS'7014'
p295
F1.90090924396943e-14
sS'7015'
p296
F5.84221491376023e-07
sS'32074'
p297
F8.51603392473592e-10
sS'32076'
p298
F5.2255853117331e-09
sS'50126'
p299
F1.97546257410575e-07
sS'50125'
p300
F3.05972428058001e-10
sS'50124'
p301
F9.06814366220466e-08
sS'50123'
p302
F1.46288183822709e-09
sS'50122'
p303
F5.07888239375159e-08
sS'33074'
p304
F4.68452940862635e-17
sS'33075'
p305
F1.98490064580668e-09
sS'68170'
p306
F1.65429684909566e-12
sS'94238'
p307
F8.59931282712373e-07
sS'37087'
p308
F3.52045787940709e-08
sS'37086'
p309
F1.37108041214227e-12
sS'37085'
p310
F5.02947139198171e-09
sS'30064'
p311
F7.3584125078654e-22
sS'38090'
p312
F3.84726149802843e-06
sS'52329'
p313
F1.45237354321683e-11
sS'52327'
p314
F4.267583117122e-10
sS'53135'
p315
F1.23159442815338e-09
sS'32073'
p316
F3.16844448415093e-10
sS'11022'
p317
F0.0
sS'66156'
p318
F1.13845175616028e-18
sS'53131'
p319
F1.76872145101741e-08
sS'18040'
p320
F0.0
sS'96244'
p321
F2.5061172653429e-07
sS'56140'
p322
F4.47602113729494e-08
sS'34077'
p323
F7.35022459737413e-09
sS'34076'
p324
F5.32541821773651e-11
sS'34074'
p325
F1.46875146090143e-15
sS'34079'
p326
F6.94076016892383e-08
sS'34078'
p327
F3.29645745265197e-08
sS'96246'
p328
F8.85458299447213e-10
sS'12024'
p329
F0.0
sS'12025'
p330
F0.0
sS'12026'
p331
F0.0
sS'22046'
p332
F0.0
sS'60142'
p333
F1.257206079611e-07
sS'60143'
p334
F7.2753116412419e-06
sS'68162'
p335
F9.04195956073424e-19
sS'64158'
p336
F1.16304582400643e-07
sS'94244'
p337
F1.17152159833254e-10
sS'22049'
p338
F0.0
sS'22048'
p339
F0.0
sS'44098'
p340
F3.22280817942068e-15
sS'44099'
p341
F4.36312178667576e-10
sS'50120'
p342
F4.36817576438079e-08
sS'95242'
p343
F4.60295809723776e-10
sS'96243'
p344
F2.24822430518793e-09
sS'56134'
p345
F3.21369645970675e-10
sS'38086'
p346
F1.52254914702451e-10
sS'38087'
p347
F1.90416834382926e-11
sS'38084'
p348
F2.74655566347645e-16
sS'18036'
p349
F0.0
sS'48315'
p350
F7.11753658243749e-11
sS'53127'
p351
F1.6940407303195e-07
sS'61147'
p352
F1.1525922047586e-06
sS'51124'
p353
F7.25321901182857e-11
sS'28064'
p354
F1.61142621591687e-21
sS'51126'
p355
F3.00329709202247e-11
sS'16034'
p356
F0.0
sS'28061'
p357
F1.95652363632228e-24
sS'28060'
p358
F0.0
sS'38088'
p359
F7.16609360134912e-08
sS'28062'
p360
F7.62869387158846e-23
sS'64156'
p361
F4.5095170854883e-07
sS'92233'
p362
F3.7659966953804e-12
sS'43099'
p363
F9.02911798455575e-06
sS'62148'
p364
F1.02861832700314e-06
sS'92234'
p365
F2.30233502143361e-08
sS'96248'
p366
F6.53426527738265e-13
sS'50114'
p367
F5.39954351979809e-14
sS'56135'
p368
F9.23211536122211e-12
sS'66162'
p369
F1.24606610831659e-09
sS'96249'
p370
F1.65063167208482e-18
sS'36080'
p371
F7.63256452404755e-19
sS'47107'
p372
F1.18126433166533e-12
sS'6012'
p373
F1.5715401787962e-13
sS'39090'
p374
F9.76786013988361e-10
sS'22050'
p375
F0.0
sS'92239'
p376
F8.99701917585469e-10
sS'35081'
p377
F3.12906379521941e-07
sS'93236'
p378
F2.57066370094287e-12
sS'36082'
p379
F2.55992166605173e-15
sS'36083'
p380
F2.3521593553224e-15
sS'36084'
p381
F2.15356932531071e-13
sS'18038'
p382
F0.0
sS'36086'
p383
F3.86400984417046e-13
sS'42092'
p384
F7.13632336943175e-20
sS'4009'
p385
F0.00505115288827361
sS'62149'
p386
F4.33857505975436e-08
sS'94243'
p387
F1.2822389145167e-10
sS'90227'
p388
F1.85806721020706e-21
sS'47109'
p389
F8.50979420407725e-07
sS'59141'
p390
F8.72553713593617e-06
sS'66163'
p391
F8.76428220629129e-10
sS'50118'
p392
F4.50032829312011e-08
sS'36085'
p393
F1.64949015750121e-14
sS'26058'
p394
F0.0
sS'61151'
p395
F4.86932109630295e-10
sS'42094'
p396
F3.2505904123428e-11
sS'42095'
p397
F8.73338862419719e-06
sS'42096'
p398
F4.4522155168656e-07
sS'19039'
p399
F0.0
sS'42098'
p400
F9.68453862953767e-06
sS'42099'
p401
F1.18427088150679e-08
sS'26056'
p402
F0.0
sS'26057'
p403
F0.0
sS'26054'
p404
F0.0
sS'92238'
p405
F0.00693541449974782
sS'14029'
p406
F0.0
sS'94240'
p407
F1.4237176859049e-05
sS'67366'
p408
F8.48906927416464e-13
sS'66160'
p409
F1.68751883411978e-09
sS'44103'
p410
F1.31614809166671e-07
sS'23051'
p411
F0.0
sS'95241'
p412
F1.13409260137493e-06
sS'64160'
p413
F8.15429141006099e-09
sS'62154'
p414
F2.68737621677258e-07
sS'62153'
p415
F1.28929343111179e-09
sS'62152'
p416
F7.81695692912371e-07
sS'62151'
p417
F1.94483083729002e-07
sS'47111'
p418
F8.36262748535337e-10
sS'27059'
p419
F0.0
sS'27058'
p420
F0.0
sS'68167'
p421
F7.47665626843989e-12
sS'92237'
p422
F7.85712606687173e-09
sS'57139'
p423
F6.22554469744261e-06
sS'44096'
p424
F3.38597210973728e-25
sS'94241'
p425
F8.06850271427905e-06
sS'92236'
p426
F2.21703274682111e-05
sS'60147'
p427
F1.67204352048955e-08
sS'66161'
p428
F1.01540439010939e-09
sS'50116'
p429
F1.79297152073309e-08
sS'50113'
p430
F6.05705941787418e-20
sS'22047'
p431
F0.0
sS'94242'
p432
F2.42119262636679e-06
sS'50117'
p433
F4.83580486807196e-08
sS'2003'
p434
F7.51534238270785e-14
sS'66158'
p435
F2.66050148679374e-16
sS'29065'
p436
F4.27989111161344e-15
sS'58139'
p437
F1.59280764768594e-12
sS'29063'
p438
F2.34886719109595e-34
sS'2004'
p439
F1.71691743413227e-12
sS'92241'
p440
F3.17166779616278e-20
sS'92232'
p441
F5.09790102082193e-13
sS'57138'
p442
F7.10511443479111e-11
sS'36078'
p443
F3.71323152339387e-26
sS'61148'
p444
F1.0692636538778e-09
ssg74
g75
sS'materialname'
p445
S'fuel'
p446
sS'massdensity'
p447
Nsbag0
(g91
g2
Ntp448
Rp449
(dp450
g95
Nsg96
F-1.8
sg86
g97
sg66
g97
sg98
I00
sg99
S'.09c'
p451
sg101
Nsg102
(dp452
S'5010'
p453
F4e-07
sS'5011'
p454
F1.6e-06
sS'6000'
p455
F0.999998
ssg74
g75
sg445
S'mod'
p456
sg447
F1.8
sbag0
(g91
g2
Ntp457
Rp458
(dp459
g95
Nsg96
F-8.86
sg86
g97
sg66
g97
sg98
I00
sg99
g451
sg101
Nsg102
(dp460
S'14030'
p461
F-0.00030872
sS'74186'
p462
F-0.0014215
sS'25055'
p463
F-0.008
sS'74184'
p464
F-0.001532
sS'74183'
p465
F-0.0007155
sS'74182'
p466
F-0.001325
sS'28058'
p467
F-0.4721201092
sS'26058'
p468
F-0.000141
sS'42092'
p469
F-0.023744
sS'42094'
p470
F-0.0148
sS'42095'
p471
F-0.025472
sS'42100'
p472
F-0.015408
sS'42097'
p473
F-0.01528
sS'42098'
p474
F-0.038608
sS'26056'
p475
F-0.045877
sS'26057'
p476
F-0.0010595
sS'26054'
p477
F-0.0029225
sS'42096'
p478
F-0.026688
sS'14028'
p479
F-0.00922297
sS'14029'
p480
F-0.00046832
sS'24050'
p481
F-0.0030415
sS'24052'
p482
F-0.0586523
sS'24053'
p483
F-0.0066507
sS'24054'
p484
F-0.0016555
sS'29065'
p485
F-0.00107905
sS'29063'
p486
F-0.00242095
sS'28064'
p487
F-0.0064191286
sS'28061'
p488
F-0.0079053205
sS'28060'
p489
F-0.1818598208
sS'28062'
p490
F-0.025205621
ssg74
g75
sg445
S'tank'
p491
sg447
F8.86
sbag0
(g91
g2
Ntp492
Rp493
(dp494
g95
F0.0795987893431233
sg96
F0.0795987893431233
sg86
g97
sg98
I01
sg99
g100
sg101
F1000000.0
sg102
(dp495
S'58138'
p496
F0.0
sS'48116'
p497
F0.0
sS'66164'
p498
F0.0
sS'48114'
p499
F0.0
sS'48113'
p500
F0.0
sS'48112'
p501
F0.0
sS'48111'
p502
F0.0
sS'21045'
p503
F0.0
sS'95243'
p504
F0.0
sS'63151'
p505
F0.0
sS'58136'
p506
F0.0
sS'60146'
p507
F0.0
sS'61348'
p508
F0.0
sS'62144'
p509
F0.0
sS'62147'
p510
F0.0
sS'8017'
p511
F0.0
sS'8016'
p512
F0.0
sS'40090'
p513
F0.0
sS'40091'
p514
F0.0
sS'40096'
p515
F0.0
sS'40094'
p516
F0.0
sS'40095'
p517
F0.0
sS'46102'
p518
F0.0
sS'96250'
p519
F0.0
sS'46106'
p520
F0.0
sS'46107'
p521
F0.0
sS'46104'
p522
F0.0
sS'46105'
p523
F0.0
sS'63154'
p524
F0.0
sS'63155'
p525
F0.0
sS'46108'
p526
F0.0
sS'48110'
p527
F0.0
sS'28058'
p528
F0.0
sS'28059'
p529
F0.0
sS'63152'
p530
F0.0
sS'58140'
p531
F0.0
sS'54131'
p532
F0.0
sS'64153'
p533
F0.0
sS'64152'
p534
F0.0
sS'64155'
p535
F0.0
sS'60148'
p536
F0.0
sS'64157'
p537
F0.0
sS'60144'
p538
F0.0
sS'57140'
p539
F0.0
sS'56136'
p540
F0.0
sS'58142'
p541
F0.0
sS'96245'
p542
F0.0
sS'34082'
p543
F0.0
sS'46110'
p544
F0.0
sS'42100'
p545
F0.0
sS'48106'
p546
F0.0
sS'48108'
p547
F0.0
sS'63153'
p548
F0.0
sS'42097'
p549
F0.0
sS'14028'
p550
F0.0
sS'41093'
p551
F0.0
sS'24050'
p552
F0.0
sS'24052'
p553
F0.0
sS'24053'
p554
F0.0
sS'24054'
p555
F0.0
sS'54126'
p556
F0.0
sS'54124'
p557
F0.0
sS'65159'
p558
F0.0
sS'58144'
p559
F0.0
sS'54129'
p560
F0.0
sS'54128'
p561
F0.0
sS'58141'
p562
F0.0
sS'56138'
p563
F0.0
sS'58143'
p564
F0.0
sS'41094'
p565
F0.0
sS'20043'
p566
F0.0
sS'20042'
p567
F0.0
sS'34080'
p568
F0.0
sS'20040'
p569
F0.0
sS'41095'
p570
F0.0
sS'20046'
p571
F0.0
sS'11023'
p572
F0.0
sS'20044'
p573
F0.0
sS'60145'
p574
F0.0
sS'20048'
p575
F0.0
sS'67165'
p576
F0.0
sS'35079'
p577
F0.0
sS'68164'
p578
F0.0
sS'92240'
p579
F0.0
sS'51123'
p580
F0.0
sS'59143'
p581
F0.0
sS'68166'
p582
F0.0
sS'90234'
p583
F4.49072507292832e-14
sS'5010'
p584
F0.0
sS'5011'
p585
F0.0
sS'65160'
p586
F0.0
sS'52126'
p587
F0.0
sS'52120'
p588
F0.0
sS'52123'
p589
F0.0
sS'52122'
p590
F0.0
sS'94237'
p591
F0.0
sS'94236'
p592
F0.0
sS'25055'
p593
F0.0
sS'52128'
p594
F0.0
sS'40092'
p595
F0.0
sS'95244'
p596
F0.0
sS'40093'
p597
F0.0
sS'54134'
p598
F0.0
sS'54135'
p599
F0.0
sS'54136'
p600
F0.0
sS'54130'
p601
F0.0
sS'9019'
p602
F0.0480067465686875
sS'54132'
p603
F0.0
sS'54133'
p604
F0.0
sS'32072'
p605
F0.0
sS'39089'
p606
F0.0
sS'93237'
p607
F0.0
sS'91233'
p608
F0.0
sS'93235'
p609
F0.0
sS'55137'
p610
F0.0
sS'55136'
p611
F0.0
sS'55135'
p612
F0.0
sS'55134'
p613
F0.0
sS'55133'
p614
F0.0
sS'64154'
p615
F0.0
sS'56132'
p616
F0.0
sS'49115'
p617
F0.0
sS'56130'
p618
F0.0
sS'13027'
p619
F0.0
sS'56137'
p620
F0.0
sS'31069'
p621
F0.0
sS'49113'
p622
F0.0
sS'90233'
p623
F0.0
sS'90232'
p624
F0.0
sS'45105'
p625
F0.0
sS'90230'
p626
F5.55703751023347e-17
sS'45103'
p627
F0.0
sS'39091'
p628
F0.0
sS'47310'
p629
F0.0
sS'52132'
p630
F0.0
sS'17035'
p631
F0.0
sS'52130'
p632
F0.0
sS'17037'
p633
F0.0
sS'92235'
p634
F0.000757897459420502
sS'94239'
p635
F0.0
sS'61149'
p636
F0.0
sS'93239'
p637
F0.0
sS'16036'
p638
F0.0
sS'56133'
p639
F0.0
sS'95342'
p640
F0.0
sS'63156'
p641
F0.0
sS'95344'
p642
F0.0
sS'53130'
p643
F0.0
sS'51125'
p644
F0.0
sS'91231'
p645
F5.5545121420229e-12
sS'91232'
p646
F0.0
sS'53129'
p647
F0.0
sS'96240'
p648
F0.0
sS'96241'
p649
F0.0
sS'96242'
p650
F0.0
sS'51121'
p651
F0.0
sS'68168'
p652
F0.0
sS'16033'
p653
F0.0
sS'15031'
p654
F0.0
sS'90228'
p655
F0.0
sS'90229'
p656
F0.0
sS'19041'
p657
F0.0
sS'19040'
p658
F0.0
sS'44104'
p659
F0.0
sS'44105'
p660
F0.0
sS'44106'
p661
F0.0
sS'50119'
p662
F0.0
sS'44100'
p663
F0.0
sS'44101'
p664
F0.0
sS'44102'
p665
F0.0
sS'16032'
p666
F0.0
sS'50112'
p667
F0.0
sS'31071'
p668
F0.0
sS'52125'
p669
F0.0
sS'38089'
p670
F0.0
sS'1003'
p671
F0.0
sS'1002'
p672
F0.0
sS'1001'
p673
F0.0
sS'50115'
p674
F0.0
sS'96247'
p675
F0.0
sS'14030'
p676
F0.0
sS'63157'
p677
F0.0
sS'52124'
p678
F0.0
sS'62150'
p679
F0.0
sS'59142'
p680
F0.0
sS'3007'
p681
F0.0227386659286941
sS'3006'
p682
F1.1370107069897e-06
sS'60150'
p683
F0.0
sS'93238'
p684
F0.0
sS'54123'
p685
F0.0
sS'32070'
p686
F0.0
sS'7014'
p687
F0.0
sS'7015'
p688
F0.0
sS'32074'
p689
F0.0
sS'32076'
p690
F0.0
sS'50126'
p691
F0.0
sS'50125'
p692
F0.0
sS'50124'
p693
F0.0
sS'50123'
p694
F0.0
sS'50122'
p695
F0.0
sS'33074'
p696
F0.0
sS'33075'
p697
F0.0
sS'68170'
p698
F0.0
sS'94238'
p699
F0.0
sS'37087'
p700
F0.0
sS'37086'
p701
F0.0
sS'37085'
p702
F0.0
sS'30064'
p703
F0.0
sS'38090'
p704
F0.0
sS'52329'
p705
F0.0
sS'52327'
p706
F0.0
sS'53135'
p707
F0.0
sS'32073'
p708
F0.0
sS'11022'
p709
F0.0
sS'66156'
p710
F0.0
sS'53131'
p711
F0.0
sS'18040'
p712
F0.0
sS'96244'
p713
F0.0
sS'56140'
p714
F0.0
sS'34077'
p715
F0.0
sS'34076'
p716
F0.0
sS'34074'
p717
F0.0
sS'34079'
p718
F0.0
sS'34078'
p719
F0.0
sS'96246'
p720
F0.0
sS'12024'
p721
F0.0
sS'12025'
p722
F0.0
sS'12026'
p723
F0.0
sS'22046'
p724
F0.0
sS'60142'
p725
F0.0
sS'60143'
p726
F0.0
sS'68162'
p727
F0.0
sS'64158'
p728
F0.0
sS'94244'
p729
F0.0
sS'22049'
p730
F0.0
sS'22048'
p731
F0.0
sS'44098'
p732
F0.0
sS'44099'
p733
F0.0
sS'50120'
p734
F0.0
sS'95242'
p735
F0.0
sS'96243'
p736
F0.0
sS'56134'
p737
F0.0
sS'38086'
p738
F0.0
sS'38087'
p739
F0.0
sS'38084'
p740
F0.0
sS'18036'
p741
F0.0
sS'48315'
p742
F0.0
sS'53127'
p743
F0.0
sS'61147'
p744
F0.0
sS'51124'
p745
F0.0
sS'28064'
p746
F0.0
sS'51126'
p747
F0.0
sS'16034'
p748
F0.0
sS'28061'
p749
F0.0
sS'28060'
p750
F0.0
sS'38088'
p751
F0.0
sS'28062'
p752
F0.0
sS'64156'
p753
F0.0
sS'92233'
p754
F0.0
sS'43099'
p755
F0.0
sS'62148'
p756
F0.0
sS'92234'
p757
F4.18378477364868e-12
sS'96248'
p758
F0.0
sS'50114'
p759
F0.0
sS'56135'
p760
F0.0
sS'66162'
p761
F0.0
sS'96249'
p762
F0.0
sS'36080'
p763
F0.0
sS'47107'
p764
F0.0
sS'6012'
p765
F0.0
sS'39090'
p766
F0.0
sS'22050'
p767
F0.0
sS'92239'
p768
F0.0
sS'35081'
p769
F0.0
sS'93236'
p770
F0.0
sS'36082'
p771
F0.0
sS'36083'
p772
F0.0
sS'36084'
p773
F0.0
sS'18038'
p774
F0.0
sS'36086'
p775
F0.0
sS'42092'
p776
F0.0
sS'4009'
p777
F0.00505327927559868
sS'62149'
p778
F0.0
sS'94243'
p779
F0.0
sS'90227'
p780
F2.69719240377927e-21
sS'47109'
p781
F0.0
sS'59141'
p782
F0.0
sS'66163'
p783
F0.0
sS'50118'
p784
F0.0
sS'36085'
p785
F0.0
sS'26058'
p786
F0.0
sS'61151'
p787
F0.0
sS'42094'
p788
F0.0
sS'42095'
p789
F0.0
sS'42096'
p790
F0.0
sS'19039'
p791
F0.0
sS'42098'
p792
F0.0
sS'42099'
p793
F0.0
sS'26056'
p794
F0.0
sS'26057'
p795
F0.0
sS'26054'
p796
F0.0
sS'92238'
p797
F0.00304106307865017
sS'14029'
p798
F0.0
sS'94240'
p799
F0.0
sS'67366'
p800
F0.0
sS'66160'
p801
F0.0
sS'44103'
p802
F0.0
sS'23051'
p803
F0.0
sS'95241'
p804
F0.0
sS'64160'
p805
F0.0
sS'62154'
p806
F0.0
sS'62153'
p807
F0.0
sS'62152'
p808
F0.0
sS'62151'
p809
F0.0
sS'47111'
p810
F0.0
sS'27059'
p811
F0.0
sS'27058'
p812
F0.0
sS'68167'
p813
F0.0
sS'92237'
p814
F0.0
sS'57139'
p815
F0.0
sS'44096'
p816
F0.0
sS'94241'
p817
F0.0
sS'92236'
p818
F0.0
sS'60147'
p819
F0.0
sS'66161'
p820
F0.0
sS'50116'
p821
F0.0
sS'50113'
p822
F0.0
sS'22047'
p823
F0.0
sS'94242'
p824
F0.0
sS'50117'
p825
F0.0
sS'2003'
p826
F0.0
sS'66158'
p827
F0.0
sS'29065'
p828
F0.0
sS'58139'
p829
F0.0
sS'29063'
p830
F0.0
sS'2004'
p831
F1.15785267197597e-11
sS'92241'
p832
F0.0
sS'92232'
p833
F0.0
sS'57138'
p834
F0.0
sS'36078'
p835
F0.0
sS'61148'
p836
F0.0
ssg74
g75
sg445
S'refuel'
p837
sg447
Nsbag0
(g91
g2
Ntp838
Rp839
(dp840
g95
F0.0483230575031437
sg96
F0.0483230575031437
sg86
g97
sg98
I01
sg99
g100
sg101
F1000000.0
sg102
(dp841
S'58138'
p842
F0.0
sS'48116'
p843
F0.0
sS'66164'
p844
F0.0
sS'48114'
p845
F0.0
sS'48113'
p846
F0.0
sS'48112'
p847
F0.0
sS'48111'
p848
F0.0
sS'21045'
p849
F0.0
sS'95243'
p850
F0.0
sS'63151'
p851
F0.0
sS'58136'
p852
F0.0
sS'60146'
p853
F0.0
sS'61348'
p854
F0.0
sS'62144'
p855
F0.0
sS'62147'
p856
F0.0
sS'8017'
p857
F0.0
sS'8016'
p858
F0.0
sS'40090'
p859
F0.0
sS'40091'
p860
F0.0
sS'40096'
p861
F0.0
sS'40094'
p862
F0.0
sS'40095'
p863
F0.0
sS'46102'
p864
F0.0
sS'96250'
p865
F0.0
sS'46106'
p866
F0.0
sS'46107'
p867
F0.0
sS'46104'
p868
F0.0
sS'46105'
p869
F0.0
sS'63154'
p870
F0.0
sS'63155'
p871
F0.0
sS'46108'
p872
F0.0
sS'48110'
p873
F0.0
sS'28058'
p874
F0.0
sS'28059'
p875
F0.0
sS'63152'
p876
F0.0
sS'58140'
p877
F0.0
sS'54131'
p878
F0.0
sS'64153'
p879
F0.0
sS'64152'
p880
F0.0
sS'64155'
p881
F0.0
sS'60148'
p882
F0.0
sS'64157'
p883
F0.0
sS'60144'
p884
F0.0
sS'57140'
p885
F0.0
sS'56136'
p886
F0.0
sS'58142'
p887
F0.0
sS'96245'
p888
F0.0
sS'34082'
p889
F0.0
sS'46110'
p890
F0.0
sS'42100'
p891
F0.0
sS'48106'
p892
F0.0
sS'48108'
p893
F0.0
sS'63153'
p894
F0.0
sS'42097'
p895
F0.0
sS'14028'
p896
F0.0
sS'41093'
p897
F0.0
sS'24050'
p898
F0.0
sS'24052'
p899
F0.0
sS'24053'
p900
F0.0
sS'24054'
p901
F0.0
sS'54126'
p902
F0.0
sS'54124'
p903
F0.0
sS'65159'
p904
F0.0
sS'58144'
p905
F0.0
sS'54129'
p906
F0.0
sS'54128'
p907
F0.0
sS'58141'
p908
F0.0
sS'56138'
p909
F0.0
sS'58143'
p910
F0.0
sS'41094'
p911
F0.0
sS'20043'
p912
F0.0
sS'20042'
p913
F0.0
sS'34080'
p914
F0.0
sS'20040'
p915
F0.0
sS'41095'
p916
F0.0
sS'20046'
p917
F0.0
sS'11023'
p918
F0.0
sS'20044'
p919
F0.0
sS'60145'
p920
F0.0
sS'20048'
p921
F0.0
sS'67165'
p922
F0.0
sS'35079'
p923
F0.0
sS'68164'
p924
F0.0
sS'92240'
p925
F0.0
sS'51123'
p926
F0.0
sS'59143'
p927
F0.0
sS'68166'
p928
F0.0
sS'90234'
p929
F7.13584558085621e-13
sS'5010'
p930
F0.0
sS'5011'
p931
F0.0
sS'65160'
p932
F0.0
sS'52126'
p933
F0.0
sS'52120'
p934
F0.0
sS'52123'
p935
F0.0
sS'52122'
p936
F0.0
sS'94237'
p937
F0.0
sS'94236'
p938
F0.0
sS'25055'
p939
F0.0
sS'52128'
p940
F0.0
sS'40092'
p941
F0.0
sS'95244'
p942
F0.0
sS'40093'
p943
F0.0
sS'54134'
p944
F0.0
sS'54135'
p945
F0.0
sS'54136'
p946
F0.0
sS'54130'
p947
F0.0
sS'9019'
p948
F0.0
sS'54132'
p949
F0.0
sS'54133'
p950
F0.0
sS'32072'
p951
F0.0
sS'39089'
p952
F0.0
sS'93237'
p953
F0.0
sS'91233'
p954
F0.0
sS'93235'
p955
F0.0
sS'55137'
p956
F0.0
sS'55136'
p957
F0.0
sS'55135'
p958
F0.0
sS'55134'
p959
F0.0
sS'55133'
p960
F0.0
sS'64154'
p961
F0.0
sS'56132'
p962
F0.0
sS'49115'
p963
F0.0
sS'56130'
p964
F0.0
sS'13027'
p965
F0.0
sS'56137'
p966
F0.0
sS'31069'
p967
F0.0
sS'49113'
p968
F0.0
sS'90233'
p969
F0.0
sS'90232'
p970
F0.0
sS'45105'
p971
F0.0
sS'90230'
p972
F8.83023585729026e-16
sS'45103'
p973
F0.0
sS'39091'
p974
F0.0
sS'47310'
p975
F0.0
sS'52132'
p976
F0.0
sS'17035'
p977
F0.0
sS'52130'
p978
F0.0
sS'17037'
p979
F0.0
sS'92235'
p980
F0.0
sS'94239'
p981
F0.0
sS'61149'
p982
F0.0
sS'93239'
p983
F0.0
sS'16036'
p984
F0.0
sS'56133'
p985
F0.0
sS'95342'
p986
F0.0
sS'63156'
p987
F0.0
sS'95344'
p988
F0.0
sS'53130'
p989
F0.0
sS'51125'
p990
F0.0
sS'91231'
p991
F0.0
sS'91232'
p992
F0.0
sS'53129'
p993
F0.0
sS'96240'
p994
F0.0
sS'96241'
p995
F0.0
sS'96242'
p996
F0.0
sS'51121'
p997
F0.0
sS'68168'
p998
F0.0
sS'16033'
p999
F0.0
sS'15031'
p1000
F0.0
sS'90228'
p1001
F0.0
sS'90229'
p1002
F0.0
sS'19041'
p1003
F0.0
sS'19040'
p1004
F0.0
sS'44104'
p1005
F0.0
sS'44105'
p1006
F0.0
sS'44106'
p1007
F0.0
sS'50119'
p1008
F0.0
sS'44100'
p1009
F0.0
sS'44101'
p1010
F0.0
sS'44102'
p1011
F0.0
sS'16032'
p1012
F0.0
sS'50112'
p1013
F0.0
sS'31071'
p1014
F0.0
sS'52125'
p1015
F0.0
sS'38089'
p1016
F0.0
sS'1003'
p1017
F0.0
sS'1002'
p1018
F0.0
sS'1001'
p1019
F0.0
sS'50115'
p1020
F0.0
sS'96247'
p1021
F0.0
sS'14030'
p1022
F0.0
sS'63157'
p1023
F0.0
sS'52124'
p1024
F0.0
sS'62150'
p1025
F0.0
sS'59142'
p1026
F0.0
sS'3007'
p1027
F0.0
sS'3006'
p1028
F0.0
sS'60150'
p1029
F0.0
sS'93238'
p1030
F0.0
sS'54123'
p1031
F0.0
sS'32070'
p1032
F0.0
sS'7014'
p1033
F0.0
sS'7015'
p1034
F0.0
sS'32074'
p1035
F0.0
sS'32076'
p1036
F0.0
sS'50126'
p1037
F0.0
sS'50125'
p1038
F0.0
sS'50124'
p1039
F0.0
sS'50123'
p1040
F0.0
sS'50122'
p1041
F0.0
sS'33074'
p1042
F0.0
sS'33075'
p1043
F0.0
sS'68170'
p1044
F0.0
sS'94238'
p1045
F0.0
sS'37087'
p1046
F0.0
sS'37086'
p1047
F0.0
sS'37085'
p1048
F0.0
sS'30064'
p1049
F0.0
sS'38090'
p1050
F0.0
sS'52329'
p1051
F0.0
sS'52327'
p1052
F0.0
sS'53135'
p1053
F0.0
sS'32073'
p1054
F0.0
sS'11022'
p1055
F0.0
sS'66156'
p1056
F0.0
sS'53131'
p1057
F0.0
sS'18040'
p1058
F0.0
sS'96244'
p1059
F0.0
sS'56140'
p1060
F0.0
sS'34077'
p1061
F0.0
sS'34076'
p1062
F0.0
sS'34074'
p1063
F0.0
sS'34079'
p1064
F0.0
sS'34078'
p1065
F0.0
sS'96246'
p1066
F0.0
sS'12024'
p1067
F0.0
sS'12025'
p1068
F0.0
sS'12026'
p1069
F0.0
sS'22046'
p1070
F0.0
sS'60142'
p1071
F0.0
sS'60143'
p1072
F0.0
sS'68162'
p1073
F0.0
sS'64158'
p1074
F0.0
sS'94244'
p1075
F0.0
sS'22049'
p1076
F0.0
sS'22048'
p1077
F0.0
sS'44098'
p1078
F0.0
sS'44099'
p1079
F0.0
sS'50120'
p1080
F0.0
sS'95242'
p1081
F0.0
sS'96243'
p1082
F0.0
sS'56134'
p1083
F0.0
sS'38086'
p1084
F0.0
sS'38087'
p1085
F0.0
sS'38084'
p1086
F0.0
sS'18036'
p1087
F0.0
sS'48315'
p1088
F0.0
sS'53127'
p1089
F0.0
sS'61147'
p1090
F0.0
sS'51124'
p1091
F0.0
sS'28064'
p1092
F0.0
sS'51126'
p1093
F0.0
sS'16034'
p1094
F0.0
sS'28061'
p1095
F0.0
sS'28060'
p1096
F0.0
sS'38088'
p1097
F0.0
sS'28062'
p1098
F0.0
sS'64156'
p1099
F0.0
sS'92233'
p1100
F0.0
sS'43099'
p1101
F0.0
sS'62148'
p1102
F0.0
sS'92234'
p1103
F6.64811174271621e-11
sS'96248'
p1104
F0.0
sS'50114'
p1105
F0.0
sS'56135'
p1106
F0.0
sS'66162'
p1107
F0.0
sS'96249'
p1108
F0.0
sS'36080'
p1109
F0.0
sS'47107'
p1110
F0.0
sS'6012'
p1111
F0.0
sS'39090'
p1112
F0.0
sS'22050'
p1113
F0.0
sS'92239'
p1114
F0.0
sS'35081'
p1115
F0.0
sS'93236'
p1116
F0.0
sS'36082'
p1117
F0.0
sS'36083'
p1118
F0.0
sS'36084'
p1119
F0.0
sS'18038'
p1120
F0.0
sS'36086'
p1121
F0.0
sS'42092'
p1122
F0.0
sS'4009'
p1123
F0.0
sS'62149'
p1124
F0.0
sS'94243'
p1125
F0.0
sS'90227'
p1126
F0.0
sS'47109'
p1127
F0.0
sS'59141'
p1128
F0.0
sS'66163'
p1129
F0.0
sS'50118'
p1130
F0.0
sS'36085'
p1131
F0.0
sS'26058'
p1132
F0.0
sS'61151'
p1133
F0.0
sS'42094'
p1134
F0.0
sS'42095'
p1135
F0.0
sS'42096'
p1136
F0.0
sS'19039'
p1137
F0.0
sS'42098'
p1138
F0.0
sS'42099'
p1139
F0.0
sS'26056'
p1140
F0.0
sS'26057'
p1141
F0.0
sS'26054'
p1142
F0.0
sS'92238'
p1143
F0.0483230573646798
sS'14029'
p1144
F0.0
sS'94240'
p1145
F0.0
sS'67366'
p1146
F0.0
sS'66160'
p1147
F0.0
sS'44103'
p1148
F0.0
sS'23051'
p1149
F0.0
sS'95241'
p1150
F0.0
sS'64160'
p1151
F0.0
sS'62154'
p1152
F0.0
sS'62153'
p1153
F0.0
sS'62152'
p1154
F0.0
sS'62151'
p1155
F0.0
sS'47111'
p1156
F0.0
sS'27059'
p1157
F0.0
sS'27058'
p1158
F0.0
sS'68167'
p1159
F0.0
sS'92237'
p1160
F0.0
sS'57139'
p1161
F0.0
sS'44096'
p1162
F0.0
sS'94241'
p1163
F0.0
sS'92236'
p1164
F0.0
sS'60147'
p1165
F0.0
sS'66161'
p1166
F0.0
sS'50116'
p1167
F0.0
sS'50113'
p1168
F0.0
sS'22047'
p1169
F0.0
sS'94242'
p1170
F0.0
sS'50117'
p1171
F0.0
sS'2003'
p1172
F0.0
sS'66158'
p1173
F0.0
sS'29065'
p1174
F0.0
sS'58139'
p1175
F0.0
sS'29063'
p1176
F0.0
sS'2004'
p1177
F7.12600377010509e-11
sS'92241'
p1178
F0.0
sS'92232'
p1179
F0.0
sS'57138'
p1180
F0.0
sS'36078'
p1181
F0.0
sS'61148'
p1182
F0.0
ssg74
g75
sg445
S'Umetal'
p1183
sg447
Nsbag0
(g91
g2
Ntp1184
Rp1185
(dp1186
g95
F0.00192903385919627
sg96
F0.00192903385919627
sg86
g97
sg98
I01
sg99
g100
sg101
F1000000.0
sg102
(dp1187
S'58138'
p1188
F0.0
sS'48116'
p1189
F0.0
sS'66164'
p1190
F0.0
sS'48114'
p1191
F0.0
sS'48113'
p1192
F0.0
sS'48112'
p1193
F0.0
sS'48111'
p1194
F0.0
sS'21045'
p1195
F0.0
sS'95243'
p1196
F0.0
sS'63151'
p1197
F0.0
sS'58136'
p1198
F0.0
sS'60146'
p1199
F3.8148431098445e-12
sS'61348'
p1200
F0.0
sS'62144'
p1201
F0.0
sS'62147'
p1202
F8.1017686066053e-14
sS'8017'
p1203
F0.0
sS'8016'
p1204
F0.0
sS'40090'
p1205
F4.90352132869396e-06
sS'40091'
p1206
F1.13037403986902e-05
sS'40096'
p1207
F1.35031103663192e-09
sS'40094'
p1208
F1.28712624058375e-08
sS'40095'
p1209
F2.91721075465832e-11
sS'46102'
p1210
F0.0
sS'96250'
p1211
F0.0
sS'46106'
p1212
F0.0
sS'46107'
p1213
F0.0
sS'46104'
p1214
F0.0
sS'46105'
p1215
F0.0
sS'63154'
p1216
F0.0
sS'63155'
p1217
F0.0
sS'46108'
p1218
F0.0
sS'48110'
p1219
F0.0
sS'28058'
p1220
F0.0
sS'28059'
p1221
F0.0
sS'63152'
p1222
F0.0
sS'58140'
p1223
F2.29504999039091e-05
sS'54131'
p1224
F8.60476470069834e-05
sS'64153'
p1225
F0.0
sS'64152'
p1226
F0.0
sS'64155'
p1227
F0.0
sS'60148'
p1228
F0.0
sS'64157'
p1229
F0.0
sS'60144'
p1230
F2.12408947308077e-09
sS'57140'
p1231
F1.59045865133101e-08
sS'56136'
p1232
F0.0
sS'58142'
p1233
F3.60778874686018e-07
sS'96245'
p1234
F0.0
sS'34082'
p1235
F0.0
sS'46110'
p1236
F0.0
sS'42100'
p1237
F1.72073761444272e-14
sS'48106'
p1238
F0.0
sS'48108'
p1239
F0.0
sS'63153'
p1240
F0.0
sS'42097'
p1241
F2.33845046749535e-11
sS'14028'
p1242
F0.0
sS'41093'
p1243
F2.48142686963151e-14
sS'24050'
p1244
F0.0
sS'24052'
p1245
F0.0
sS'24053'
p1246
F0.0
sS'24054'
p1247
F0.0
sS'54126'
p1248
F4.71017023089275e-13
sS'54124'
p1249
F0.0
sS'65159'
p1250
F0.0
sS'58144'
p1251
F3.12768251904689e-10
sS'54129'
p1252
F5.09111510646677e-12
sS'54128'
p1253
F1.64935492455653e-07
sS'58141'
p1254
F1.82410997783669e-08
sS'56138'
p1255
F0.000156116325837471
sS'58143'
p1256
F1.30099565538152e-11
sS'41094'
p1257
F0.0
sS'20043'
p1258
F0.0
sS'20042'
p1259
F0.0
sS'34080'
p1260
F0.0
sS'20040'
p1261
F0.0
sS'41095'
p1262
F1.5807575840867e-11
sS'20046'
p1263
F0.0
sS'11023'
p1264
F0.0
sS'20044'
p1265
F0.0
sS'60145'
p1266
F6.70005534609334e-11
sS'20048'
p1267
F0.0
sS'67165'
p1268
F0.0
sS'35079'
p1269
F1.41550273811045e-16
sS'68164'
p1270
F0.0
sS'92240'
p1271
F0.0
sS'51123'
p1272
F0.0
sS'59143'
p1273
F1.27978149845482e-10
sS'68166'
p1274
F0.0
sS'90234'
p1275
F0.0
sS'5010'
p1276
F0.0
sS'5011'
p1277
F0.0
sS'65160'
p1278
F0.0
sS'52126'
p1279
F0.0
sS'52120'
p1280
F0.0
sS'52123'
p1281
F0.0
sS'52122'
p1282
F0.0
sS'94237'
p1283
F0.0
sS'94236'
p1284
F0.0
sS'25055'
p1285
F0.0
sS'52128'
p1286
F0.0
sS'40092'
p1287
F1.57937235809092e-06
sS'95244'
p1288
F0.0
sS'40093'
p1289
F3.15253367836217e-07
sS'54134'
p1290
F0.000214638421347556
sS'54135'
p1291
F3.01678521097662e-08
sS'54136'
p1292
F0.000185040474321474
sS'54130'
p1293
F6.95852705894819e-07
sS'9019'
p1294
F0.0
sS'54132'
p1295
F0.000129582429400536
sS'54133'
p1296
F3.51947003036059e-07
sS'32072'
p1297
F0.0
sS'39089'
p1298
F7.37491627539735e-05
sS'93237'
p1299
F0.0
sS'91233'
p1300
F0.0
sS'93235'
p1301
F0.0
sS'55137'
p1302
F0.000132337496697785
sS'55136'
p1303
F0.0
sS'55135'
p1304
F0.000193574918765445
sS'55134'
p1305
F0.0
sS'55133'
p1306
F0.000154170055104807
sS'64154'
p1307
F0.0
sS'56132'
p1308
F0.0
sS'49115'
p1309
F0.0
sS'56130'
p1310
F0.0
sS'13027'
p1311
F0.0
sS'56137'
p1312
F1.51754586907801e-05
sS'31069'
p1313
F0.0
sS'49113'
p1314
F0.0
sS'90233'
p1315
F0.0
sS'90232'
p1316
F0.0
sS'45105'
p1317
F0.0
sS'90230'
p1318
F0.0
sS'45103'
p1319
F0.0
sS'39091'
p1320
F2.76179947978447e-07
sS'47310'
p1321
F0.0
sS'52132'
p1322
F0.0
sS'17035'
p1323
F0.0
sS'52130'
p1324
F0.0
sS'17037'
p1325
F0.0
sS'92235'
p1326
F0.0
sS'94239'
p1327
F0.0
sS'61149'
p1328
F0.0
sS'93239'
p1329
F0.0
sS'16036'
p1330
F0.0
sS'56133'
p1331
F0.0
sS'95342'
p1332
F0.0
sS'63156'
p1333
F0.0
sS'95344'
p1334
F0.0
sS'53130'
p1335
F0.0
sS'51125'
p1336
F0.0
sS'91231'
p1337
F0.0
sS'91232'
p1338
F0.0
sS'53129'
p1339
F0.0
sS'96240'
p1340
F0.0
sS'96241'
p1341
F0.0
sS'96242'
p1342
F0.0
sS'51121'
p1343
F0.0
sS'68168'
p1344
F0.0
sS'16033'
p1345
F0.0
sS'15031'
p1346
F0.0
sS'90228'
p1347
F4.41121951884768e-24
sS'90229'
p1348
F8.64768897352221e-21
sS'19041'
p1349
F0.0
sS'19040'
p1350
F0.0
sS'44104'
p1351
F0.0
sS'44105'
p1352
F0.0
sS'44106'
p1353
F0.0
sS'50119'
p1354
F0.0
sS'44100'
p1355
F0.0
sS'44101'
p1356
F0.0
sS'44102'
p1357
F0.0
sS'16032'
p1358
F0.0
sS'50112'
p1359
F0.0
sS'31071'
p1360
F0.0
sS'52125'
p1361
F9.58024118031298e-19
sS'38089'
p1362
F1.53529456506252e-06
sS'1003'
p1363
F0.0
sS'1002'
p1364
F0.0
sS'1001'
p1365
F0.0
sS'50115'
p1366
F0.0
sS'96247'
p1367
F0.0
sS'14030'
p1368
F0.0
sS'63157'
p1369
F0.0
sS'52124'
p1370
F0.0
sS'62150'
p1371
F0.0
sS'59142'
p1372
F0.0
sS'3007'
p1373
F0.0
sS'3006'
p1374
F2.6432839875554e-07
sS'60150'
p1375
F0.0
sS'93238'
p1376
F0.0
sS'54123'
p1377
F0.0
sS'32070'
p1378
F0.0
sS'7014'
p1379
F0.0
sS'7015'
p1380
F0.0
sS'32074'
p1381
F0.0
sS'32076'
p1382
F0.0
sS'50126'
p1383
F0.0
sS'50125'
p1384
F0.0
sS'50124'
p1385
F0.0
sS'50123'
p1386
F0.0
sS'50122'
p1387
F0.0
sS'33074'
p1388
F0.0
sS'33075'
p1389
F0.0
sS'68170'
p1390
F0.0
sS'94238'
p1391
F0.0
sS'37087'
p1392
F5.20392601759402e-05
sS'37086'
p1393
F0.0
sS'37085'
p1394
F2.278783513521e-05
sS'30064'
p1395
F0.0
sS'38090'
p1396
F4.0069089741419e-05
sS'52329'
p1397
F0.0
sS'52327'
p1398
F0.0
sS'53135'
p1399
F0.0
sS'32073'
p1400
F0.0
sS'11022'
p1401
F0.0
sS'66156'
p1402
F0.0
sS'53131'
p1403
F0.0
sS'18040'
p1404
F0.0
sS'96244'
p1405
F0.0
sS'56140'
p1406
F1.20876545128231e-07
sS'34077'
p1407
F4.48701309296262e-23
sS'34076'
p1408
F0.0
sS'34074'
p1409
F0.0
sS'34079'
p1410
F0.0
sS'34078'
p1411
F0.0
sS'96246'
p1412
F0.0
sS'12024'
p1413
F0.0
sS'12025'
p1414
F0.0
sS'12026'
p1415
F0.0
sS'22046'
p1416
F0.0
sS'60142'
p1417
F0.0
sS'60143'
p1418
F2.13491910355964e-08
sS'68162'
p1419
F0.0
sS'64158'
p1420
F0.0
sS'94244'
p1421
F0.0
sS'22049'
p1422
F0.0
sS'22048'
p1423
F0.0
sS'44098'
p1424
F0.0
sS'44099'
p1425
F1.16685664327603e-18
sS'50120'
p1426
F0.0
sS'95242'
p1427
F0.0
sS'96243'
p1428
F0.0
sS'56134'
p1429
F0.0
sS'38086'
p1430
F0.0
sS'38087'
p1431
F2.0785829444365e-10
sS'38084'
p1432
F0.0
sS'18036'
p1433
F0.0
sS'48315'
p1434
F0.0
sS'53127'
p1435
F2.1667722023833e-16
sS'61147'
p1436
F4.90002816934814e-14
sS'51124'
p1437
F0.0
sS'28064'
p1438
F0.0
sS'51126'
p1439
F0.0
sS'16034'
p1440
F0.0
sS'28061'
p1441
F0.0
sS'28060'
p1442
F0.0
sS'38088'
p1443
F6.89354835506094e-05
sS'28062'
p1444
F0.0
sS'64156'
p1445
F0.0
sS'92233'
p1446
F0.0
sS'43099'
p1447
F2.47622815781598e-14
sS'62148'
p1448
F0.0
sS'92234'
p1449
F0.0
sS'96248'
p1450
F0.0
sS'50114'
p1451
F0.0
sS'56135'
p1452
F5.34440262218521e-10
sS'66162'
p1453
F0.0
sS'96249'
p1454
F0.0
sS'36080'
p1455
F5.06533341063189e-11
sS'47107'
p1456
F0.0
sS'6012'
p1457
F0.0
sS'39090'
p1458
F1.0151480218627e-08
sS'22050'
p1459
F0.0
sS'92239'
p1460
F0.0
sS'35081'
p1461
F1.69320830633779e-17
sS'93236'
p1462
F0.0
sS'36082'
p1463
F1.11252775805046e-07
sS'36083'
p1464
F1.1745862770567e-05
sS'36084'
p1465
F2.1420878461252e-05
sS'18038'
p1466
F0.0
sS'36086'
p1467
F3.8680091508846e-05
sS'42092'
p1468
F0.0
sS'4009'
p1469
F0.0
sS'62149'
p1470
F0.0
sS'94243'
p1471
F0.0
sS'90227'
p1472
F0.0
sS'47109'
p1473
F0.0
sS'59141'
p1474
F1.32518449660447e-06
sS'66163'
p1475
F0.0
sS'50118'
p1476
F0.0
sS'36085'
p1477
F5.4509569818189e-06
sS'26058'
p1478
F0.0
sS'61151'
p1479
F0.0
sS'42094'
p1480
F0.0
sS'42095'
p1481
F9.79757711722407e-10
sS'42096'
p1482
F0.0
sS'19039'
p1483
F0.0
sS'42098'
p1484
F2.70034473606306e-11
sS'42099'
p1485
F3.4521669203078e-17
sS'26056'
p1486
F0.0
sS'26057'
p1487
F0.0
sS'26054'
p1488
F0.0
sS'92238'
p1489
F0.0
sS'14029'
p1490
F0.0
sS'94240'
p1491
F0.0
sS'67366'
p1492
F0.0
sS'66160'
p1493
F0.0
sS'44103'
p1494
F0.0
sS'23051'
p1495
F0.0
sS'95241'
p1496
F0.0
sS'64160'
p1497
F0.0
sS'62154'
p1498
F0.0
sS'62153'
p1499
F0.0
sS'62152'
p1500
F0.0
sS'62151'
p1501
F0.0
sS'47111'
p1502
F0.0
sS'27059'
p1503
F0.0
sS'27058'
p1504
F0.0
sS'68167'
p1505
F0.0
sS'92237'
p1506
F0.0
sS'57139'
p1507
F6.37226940650406e-05
sS'44096'
p1508
F0.0
sS'94241'
p1509
F0.0
sS'92236'
p1510
F0.0
sS'60147'
p1511
F6.44142394194156e-16
sS'66161'
p1512
F0.0
sS'50116'
p1513
F0.0
sS'50113'
p1514
F0.0
sS'22047'
p1515
F0.0
sS'94242'
p1516
F0.0
sS'50117'
p1517
F0.0
sS'2003'
p1518
F6.06378532641146e-06
sS'66158'
p1519
F0.0
sS'29065'
p1520
F0.0
sS'58139'
p1521
F0.0
sS'29063'
p1522
F0.0
sS'2004'
p1523
F0.000211267121819271
sS'92241'
p1524
F0.0
sS'92232'
p1525
F0.0
sS'57138'
p1526
F0.0
sS'36078'
p1527
F3.58221813500734e-18
sS'61148'
p1528
F0.0
ssg74
g75
sg445
S'offgastank'
p1529
sg447
Nsbag0
(g91
g2
Ntp1530
Rp1531
(dp1532
g95
F0.549341202425302
sg96
F0.549341202425302
sg86
g97
sg98
I01
sg99
g100
sg101
F1000000.0
sg102
(dp1533
S'58138'
p1534
F1.90652022021343e-13
sS'48116'
p1535
F1.72635242249582e-07
sS'66164'
p1536
F1.53587943244262e-09
sS'48114'
p1537
F4.96293163674355e-07
sS'48113'
p1538
F7.80065250079609e-09
sS'48112'
p1539
F3.43790604905448e-07
sS'48111'
p1540
F8.58950776909578e-07
sS'21045'
p1541
F0.0
sS'95243'
p1542
F1.84021091987401e-06
sS'63151'
p1543
F2.04183180125158e-08
sS'58136'
p1544
F1.16769397313899e-22
sS'60146'
p1545
F1.81375991597931e-05
sS'61348'
p1546
F8.93323250400193e-10
sS'62144'
p1547
F4.50800468839454e-21
sS'62147'
p1548
F7.42930366674442e-06
sS'8017'
p1549
F4.23196449439818e-09
sS'8016'
p1550
F7.590199305481e-06
sS'40090'
p1551
F2.29021764530202e-06
sS'40091'
p1552
F2.14807629098467e-05
sS'40096'
p1553
F3.42597239418701e-05
sS'40094'
p1554
F3.44089644203997e-05
sS'40095'
p1555
F6.55343590696479e-08
sS'46102'
p1556
F5.3272055132575e-14
sS'96250'
p1557
F1.24898304687049e-20
sS'46106'
p1558
F1.26245302226434e-05
sS'46107'
p1559
F8.52518569742296e-06
sS'46104'
p1560
F6.52967546750902e-06
sS'46105'
p1561
F1.63323202348638e-05
sS'63154'
p1562
F3.92211148413827e-07
sS'63155'
p1563
F9.79716376354112e-08
sS'46108'
p1564
F5.67735440565882e-06
sS'48110'
p1565
F7.80754858593956e-07
sS'28058'
p1566
F0.0
sS'28059'
p1567
F0.0
sS'63152'
p1568
F3.86165930957755e-09
sS'58140'
p1569
F3.12349895922211e-05
sS'54131'
p1570
F1.14342259252081e-07
sS'64153'
p1571
F1.78841890184561e-12
sS'64152'
p1572
F2.50891404649927e-10
sS'64155'
p1573
F5.41632437543325e-08
sS'60148'
p1574
F1.00004307298651e-05
sS'64157'
p1575
F6.04012550455303e-09
sS'60144'
p1576
F3.1880784054323e-05
sS'57140'
p1577
F5.98646204038757e-10
sS'56136'
p1578
F2.28582146751754e-07
sS'58142'
p1579
F3.22101811816494e-05
sS'96245'
p1580
F3.10296304379795e-08
sS'34082'
p1581
F1.79309575126988e-06
sS'46110'
p1582
F1.81385589402199e-06
sS'42100'
p1583
F3.08261906774722e-05
sS'48106'
p1584
F3.35947686063286e-19
sS'48108'
p1585
F3.13875462167936e-12
sS'63153'
p1586
F2.80309800308386e-06
sS'42097'
p1587
F2.12977180299487e-05
sS'14028'
p1588
F0.0
sS'41093'
p1589
F4.46084534684044e-09
sS'24050'
p1590
F0.0
sS'24052'
p1591
F0.0
sS'24053'
p1592
F0.0
sS'24054'
p1593
F0.0
sS'54126'
p1594
F1.27614633366796e-16
sS'54124'
p1595
F0.0
sS'65159'
p1596
F5.08600200134005e-08
sS'58144'
p1597
F8.66006699601196e-07
sS'54129'
p1598
F1.33826639577149e-09
sS'54128'
p1599
F6.81693875454692e-09
sS'58141'
p1600
F1.92273225930542e-08
sS'56138'
p1601
F5.14731397109694e-06
sS'58143'
p1602
F7.01653358264031e-11
sS'41094'
p1603
F3.62299531478134e-11
sS'20043'
p1604
F0.0
sS'20042'
p1605
F0.0
sS'34080'
p1606
F6.77466424384529e-07
sS'20040'
p1607
F0.0
sS'41095'
p1608
F5.06448808096164e-08
sS'20046'
p1609
F0.0
sS'11023'
p1610
F0.0
sS'20044'
p1611
F0.0
sS'60145'
p1612
F1.86353061887241e-05
sS'20048'
p1613
F0.0
sS'67165'
p1614
F1.40314078164009e-09
sS'35079'
p1615
F1.52157473350017e-10
sS'68164'
p1616
F1.54307535864763e-14
sS'92240'
p1617
F2.10149485693361e-16
sS'51123'
p1618
F1.91112521335811e-07
sS'59143'
p1619
F5.12270032590781e-09
sS'68166'
p1620
F2.17340063000914e-10
sS'90234'
p1621
F5.19928563847785e-13
sS'5010'
p1622
F3.05000583072138e-16
sS'5011'
p1623
F2.77230208963199e-12
sS'65160'
p1624
F3.32222241210131e-11
sS'52126'
p1625
F2.67264382459527e-08
sS'52120'
p1626
F1.95465430384242e-17
sS'52123'
p1627
F1.78653077678752e-11
sS'52122'
p1628
F2.55105121026183e-09
sS'94237'
p1629
F4.02035105788236e-14
sS'94236'
p1630
F4.98727226605954e-14
sS'25055'
p1631
F0.0
sS'52128'
p1632
F2.48755797640307e-06
sS'40092'
p1633
F2.76343254582672e-05
sS'95244'
p1634
F3.70968617072953e-14
sS'40093'
p1635
F2.81968323626573e-05
sS'54134'
p1636
F2.1677564810482e-09
sS'54135'
p1637
F4.68841139321437e-12
sS'54136'
p1638
F2.90906548154706e-11
sS'54130'
p1639
F5.68871560891919e-11
sS'9019'
p1640
F0.324479460210566
sS'54132'
p1641
F6.92360250346268e-08
sS'54133'
p1642
F1.49501973727353e-10
sS'32072'
p1643
F2.62343530901562e-10
sS'39089'
p1644
F4.35725125219168e-06
sS'93237'
p1645
F4.23114773904451e-06
sS'91233'
p1646
F1.45870738325769e-13
sS'93235'
p1647
F2.362177607116e-15
sS'55137'
p1648
F5.40069457097397e-06
sS'55136'
p1649
F1.65779687319769e-11
sS'55135'
p1650
F7.22805663430568e-08
sS'55134'
p1651
F2.9145575750894e-10
sS'55133'
p1652
F2.06819834877211e-08
sS'64154'
p1653
F1.78912883220924e-07
sS'56132'
p1654
F9.03629715663593e-15
sS'49115'
p1655
F4.42075402690311e-08
sS'56130'
p1656
F6.82180291543436e-24
sS'13027'
p1657
F0.0
sS'56137'
p1658
F8.38362738228656e-07
sS'31069'
p1659
F4.55060817394468e-11
sS'49113'
p1660
F1.7898127895345e-12
sS'90233'
p1661
F1.93323028859666e-22
sS'90232'
p1662
F7.65965374850601e-09
sS'45105'
p1663
F5.18977891008364e-11
sS'90230'
p1664
F6.38406901029438e-13
sS'45103'
p1665
F2.13401028793173e-05
sS'39091'
p1666
F3.51084974962701e-08
sS'47310'
p1667
F1.65175231374977e-09
sS'52132'
p1668
F3.29185299922597e-10
sS'17035'
p1669
F0.0
sS'52130'
p1670
F1.2239185712218e-05
sS'17037'
p1671
F0.0
sS'92235'
p1672
F0.000794838484409055
sS'94239'
p1673
F0.000173608456907073
sS'61149'
p1674
F4.47093677507846e-11
sS'93239'
p1675
F3.08312170727629e-09
sS'16036'
p1676
F0.0
sS'56133'
p1677
F8.24784838995165e-15
sS'95342'
p1678
F3.77644084587158e-08
sS'63156'
p1679
F3.87642484692243e-10
sS'95344'
p1680
F1.02365061286982e-15
sS'53130'
p1681
F6.11390177441094e-14
sS'51125'
p1682
F1.05014546614847e-07
sS'91231'
p1683
F5.47294990546971e-12
sS'91232'
p1684
F8.68703615482391e-18
sS'53129'
p1685
F4.85720045255032e-06
sS'96240'
p1686
F1.37944104478708e-19
sS'96241'
p1687
F9.15842165466021e-17
sS'96242'
p1688
F4.54399497397411e-08
sS'51121'
p1689
F1.18550714829659e-07
sS'68168'
p1690
F7.12408409349029e-11
sS'16033'
p1691
F0.0
sS'15031'
p1692
F0.0
sS'90228'
p1693
F2.45434581221673e-14
sS'90229'
p1694
F2.69827002922728e-15
sS'19041'
p1695
F0.0
sS'19040'
p1696
F0.0
sS'44104'
p1697
F2.16709140931556e-05
sS'44105'
p1698
F7.5176987384059e-13
sS'44106'
p1699
F6.84193832471931e-07
sS'50119'
p1700
F1.52732951305881e-07
sS'44100'
p1701
F2.31990688651714e-06
sS'44101'
p1702
F3.16983505509494e-05
sS'44102'
p1703
F3.11817671820098e-05
sS'16032'
p1704
F0.0
sS'50112'
p1705
F2.56407061068185e-17
sS'31071'
p1706
F1.91464360105443e-10
sS'52125'
p1707
F2.36304571014177e-07
sS'38089'
p1708
F5.4465076064709e-09
sS'1003'
p1709
F3.79365831295396e-06
sS'1002'
p1710
F2.76673982232296e-08
sS'1001'
p1711
F9.98605804966483e-12
sS'50115'
p1712
F4.67602755167726e-09
sS'96247'
p1713
F1.47244472761342e-11
sS'14030'
p1714
F0.0
sS'63157'
p1715
F1.17457968153808e-13
sS'52124'
p1716
F4.47585679481573e-09
sS'62150'
p1717
F6.88656956909152e-06
sS'59142'
p1718
F5.19656354624325e-13
sS'3007'
p1719
F0.153690391228324
sS'3006'
p1720
F4.36282677864812e-06
sS'60150'
p1721
F4.36064735712432e-06
sS'93238'
p1722
F1.58970656103264e-11
sS'54123'
p1723
F0.0
sS'32070'
p1724
F3.56591086730776e-13
sS'7014'
p1725
F1.28130918707314e-13
sS'7015'
p1726
F2.07844414863868e-06
sS'32074'
p1727
F2.98992698298704e-09
sS'32076'
p1728
F1.68257671217115e-08
sS'50126'
p1729
F6.82447151906131e-07
sS'50125'
p1730
F2.33534666041252e-11
sS'50124'
p1731
F3.91852561105056e-07
sS'50123'
p1732
F6.62457371938102e-10
sS'50122'
p1733
F5.57942316951108e-07
sS'33074'
p1734
F5.12223861188599e-18
sS'33075'
p1735
F7.00423261656947e-09
sS'68170'
p1736
F5.25237629708157e-12
sS'94238'
p1737
F2.1429368986391e-06
sS'37087'
p1738
F1.1750518770506e-07
sS'37086'
p1739
F1.54467611833522e-13
sS'37085'
p1740
F1.8239848409936e-08
sS'30064'
p1741
F3.7591188118778e-21
sS'38090'
p1742
F1.32544612752175e-05
sS'52329'
p1743
F2.35245332051189e-12
sS'52327'
p1744
F1.68757192293654e-10
sS'53135'
p1745
F3.36593593923689e-12
sS'32073'
p1746
F1.09281272452129e-09
sS'11022'
p1747
F0.0
sS'66156'
p1748
F3.18722325886719e-18
sS'53131'
p1749
F1.20720220075016e-09
sS'18040'
p1750
F0.0
sS'96244'
p1751
F4.5529883824642e-07
sS'56140'
p1752
F4.04213115059199e-09
sS'34077'
p1753
F2.60894843891219e-08
sS'34076'
p1754
F3.74942035544316e-10
sS'34074'
p1755
F5.02331472480194e-15
sS'34079'
p1756
F2.47484931089604e-07
sS'34078'
p1757
F1.21191718655689e-07
sS'96246'
p1758
F1.33252985647818e-09
sS'12024'
p1759
F0.0
sS'12025'
p1760
F0.0
sS'12026'
p1761
F0.0
sS'22046'
p1762
F0.0
sS'60142'
p1763
F3.49182699062909e-07
sS'60143'
p1764
F2.66213005748594e-05
sS'68162'
p1765
F2.44434118599964e-18
sS'64158'
p1766
F3.75428898022062e-07
sS'94244'
p1767
F2.3325327793672e-10
sS'22049'
p1768
F0.0
sS'22048'
p1769
F0.0
sS'44098'
p1770
F2.62510592733111e-14
sS'44099'
p1771
F2.19845677009933e-09
sS'50120'
p1772
F1.50912744946469e-07
sS'95242'
p1773
F3.55148928401926e-12
sS'96243'
p1774
F5.19234196199457e-09
sS'56134'
p1775
F1.28600561771806e-09
sS'38086'
p1776
F6.88191711947913e-10
sS'38087'
p1777
F2.54675305088961e-10
sS'38084'
p1778
F1.10642660993253e-15
sS'18036'
p1779
F0.0
sS'48315'
p1780
F1.40166366358427e-11
sS'53127'
p1781
F5.98527591099321e-07
sS'61147'
p1782
F2.63222869113468e-06
sS'51124'
p1783
F1.76497725631328e-11
sS'28064'
p1784
F5.45464967443749e-21
sS'51126'
p1785
F2.6757444600047e-12
sS'16034'
p1786
F0.0
sS'28061'
p1787
F5.28964373138055e-24
sS'28060'
p1788
F0.0
sS'38088'
p1789
F3.18488921499898e-07
sS'28062'
p1790
F1.77736707316571e-22
sS'64156'
p1791
F1.33078084630232e-06
sS'92233'
p1792
F1.33933763187351e-11
sS'43099'
p1793
F3.24337108828207e-05
sS'62148'
p1794
F2.90986335892485e-06
sS'92234'
p1795
F7.9860047758684e-08
sS'96248'
p1796
F7.63184191263715e-13
sS'50114'
p1797
F5.26800386729593e-13
sS'56135'
p1798
F3.27341973761714e-11
sS'66162'
p1799
F4.34234815319854e-09
sS'96249'
p1800
F7.33884294493535e-22
sS'36080'
p1801
F6.81795238291512e-16
sS'47107'
p1802
F3.9261158518531e-11
sS'6012'
p1803
F2.43960171916695e-11
sS'39090'
p1804
F3.36211067053121e-09
sS'22050'
p1805
F0.0
sS'92239'
p1806
F1.46239468444384e-13
sS'35081'
p1807
F1.11777361552422e-06
sS'93236'
p1808
F5.74015715521011e-12
sS'36082'
p1809
F3.46486425936588e-07
sS'36083'
p1810
F2.24925368321426e-10
sS'36084'
p1811
F8.71866100811366e-11
sS'18038'
p1812
F0.0
sS'36086'
p1813
F7.38915958040828e-12
sS'42092'
p1814
F2.29415135191178e-19
sS'4009'
p1815
F0.0341474474642882
sS'62149'
p1816
F1.71798166974877e-07
sS'94243'
p1817
F2.64289717793903e-13
sS'90227'
p1818
F2.79105261198757e-21
sS'47109'
p1819
F2.95666363660101e-06
sS'59141'
p1820
F3.13033169205218e-05
sS'66163'
p1821
F2.92541980301133e-09
sS'50118'
p1822
F1.53331020929253e-07
sS'36085'
p1823
F2.40408428971035e-12
sS'26058'
p1824
F0.0
sS'61151'
p1825
F5.7911212298547e-12
sS'42094'
p1826
F7.95696602637826e-11
sS'42095'
p1827
F3.26328373209959e-05
sS'42096'
p1828
F1.17806196289648e-06
sS'19039'
p1829
F0.0
sS'42098'
p1830
F3.42166803326541e-05
sS'42099'
p1831
F3.23228964793982e-10
sS'26056'
p1832
F0.0
sS'26057'
p1833
F0.0
sS'26054'
p1834
F0.0
sS'92238'
p1835
F0.0350719758824499
sS'14029'
p1836
F0.0
sS'94240'
p1837
F5.52980849226468e-05
sS'67366'
p1838
F1.99381781070849e-12
sS'66160'
p1839
F4.61276471089346e-09
sS'44103'
p1840
F2.37942909367654e-08
sS'23051'
p1841
F0.0
sS'95241'
p1842
F6.6224053513805e-06
sS'64160'
p1843
F2.7294875931104e-08
sS'62154'
p1844
F9.27132923557674e-07
sS'62153'
p1845
F2.48245987866278e-11
sS'62152'
p1846
F3.06929275420614e-06
sS'62151'
p1847
F6.96221794114702e-07
sS'47111'
p1848
F5.39376356241803e-11
sS'27059'
p1849
F0.0
sS'27058'
p1850
F0.0
sS'68167'
p1851
F2.38953128079066e-11
sS'92237'
p1852
F4.71413619694732e-10
sS'57139'
p1853
F2.19964426342666e-05
sS'44096'
p1854
F3.2782076250882e-24
sS'94241'
p1855
F2.56680426244818e-05
sS'92236'
p1856
F7.78977450273263e-05
sS'60147'
p1857
F1.38226038547121e-09
sS'66161'
p1858
F3.19058460201864e-09
sS'50116'
p1859
F5.29507121912168e-08
sS'50113'
p1860
F2.43480089421717e-20
sS'22047'
p1861
F0.0
sS'94242'
p1862
F7.6379563891587e-06
sS'50117'
p1863
F1.65713756320048e-07
sS'2003'
p1864
F8.65472080471681e-07
sS'66158'
p1865
F7.66404577559552e-16
sS'29065'
p1866
F1.36559411994668e-14
sS'58139'
p1867
F7.29257796502404e-13
sS'29063'
p1868
F4.36018513638691e-26
sS'2004'
p1869
F4.21814571043308e-07
sS'92241'
p1870
F1.09921015683573e-24
sS'92232'
p1871
F1.22262396782533e-12
sS'57138'
p1872
F2.2285596147122e-10
sS'36078'
p1873
F2.69190246601345e-24
sS'61148'
p1874
F5.78722113331941e-11
ssg74
g75
sg445
S'excessfueltank'
p1875
sg447
Nsbag0
(g91
g2
Ntp1876
Rp1877
(dp1878
g95
F0.0598713973193
sg96
F0.0598713973193
sg86
g97
sg98
I01
sg99
g100
sg101
F1000000.0
sg102
(dp1879
S'58138'
p1880
F0.0
sS'48116'
p1881
F0.0
sS'66164'
p1882
F0.0
sS'48114'
p1883
F0.0
sS'48113'
p1884
F0.0
sS'48112'
p1885
F0.0
sS'48111'
p1886
F0.0
sS'21045'
p1887
F0.0
sS'95243'
p1888
F0.0
sS'63151'
p1889
F0.0
sS'58136'
p1890
F0.0
sS'60146'
p1891
F0.0
sS'61348'
p1892
F0.0
sS'62144'
p1893
F0.0
sS'62147'
p1894
F0.0
sS'8017'
p1895
F0.0
sS'8016'
p1896
F0.0
sS'40090'
p1897
F0.0
sS'40091'
p1898
F0.0
sS'40096'
p1899
F0.0
sS'40094'
p1900
F0.0
sS'40095'
p1901
F0.0
sS'46102'
p1902
F0.0
sS'96250'
p1903
F0.0
sS'46106'
p1904
F0.0
sS'46107'
p1905
F0.0
sS'46104'
p1906
F0.0
sS'46105'
p1907
F0.0
sS'63154'
p1908
F0.0
sS'63155'
p1909
F0.0
sS'46108'
p1910
F0.0
sS'48110'
p1911
F0.0
sS'28058'
p1912
F0.0
sS'28059'
p1913
F0.0
sS'63152'
p1914
F0.0
sS'58140'
p1915
F0.0
sS'54131'
p1916
F0.0
sS'64153'
p1917
F0.0
sS'64152'
p1918
F2.99356986596851e-05
sS'64155'
p1919
F0.0022152417008089
sS'60148'
p1920
F0.0
sS'64157'
p1921
F0.00234246842011884
sS'60144'
p1922
F0.0
sS'57140'
p1923
F0.0
sS'56136'
p1924
F0.0
sS'58142'
p1925
F0.0
sS'96245'
p1926
F0.0
sS'34082'
p1927
F0.0
sS'46110'
p1928
F0.0
sS'42100'
p1929
F0.0
sS'48106'
p1930
F0.0
sS'48108'
p1931
F0.0
sS'63153'
p1932
F0.0
sS'42097'
p1933
F0.0
sS'14028'
p1934
F0.0
sS'41093'
p1935
F0.0
sS'24050'
p1936
F0.0
sS'24052'
p1937
F0.0
sS'24053'
p1938
F0.0
sS'24054'
p1939
F0.0
sS'54126'
p1940
F0.0
sS'54124'
p1941
F0.0
sS'65159'
p1942
F0.0
sS'58144'
p1943
F0.0
sS'54129'
p1944
F0.0
sS'54128'
p1945
F0.0
sS'58141'
p1946
F0.0
sS'56138'
p1947
F0.0
sS'58143'
p1948
F0.0
sS'41094'
p1949
F0.0
sS'20043'
p1950
F0.0
sS'20042'
p1951
F0.0
sS'34080'
p1952
F0.0
sS'20040'
p1953
F0.0
sS'41095'
p1954
F0.0
sS'20046'
p1955
F0.0
sS'11023'
p1956
F0.0
sS'20044'
p1957
F0.0
sS'60145'
p1958
F0.0
sS'20048'
p1959
F0.0
sS'67165'
p1960
F0.0
sS'35079'
p1961
F0.0
sS'68164'
p1962
F0.0
sS'92240'
p1963
F0.0
sS'51123'
p1964
F0.0
sS'59143'
p1965
F0.0
sS'68166'
p1966
F0.0
sS'90234'
p1967
F0.0
sS'5010'
p1968
F0.0
sS'5011'
p1969
F0.0
sS'65160'
p1970
F0.0
sS'52126'
p1971
F0.0
sS'52120'
p1972
F0.0
sS'52123'
p1973
F0.0
sS'52122'
p1974
F0.0
sS'94237'
p1975
F0.0
sS'94236'
p1976
F0.0
sS'25055'
p1977
F0.0
sS'52128'
p1978
F0.0
sS'40092'
p1979
F0.0
sS'95244'
p1980
F0.0
sS'40093'
p1981
F0.0
sS'54134'
p1982
F0.0
sS'54135'
p1983
F0.0
sS'54136'
p1984
F0.0
sS'54130'
p1985
F0.0
sS'9019'
p1986
F0.0449035479894777
sS'54132'
p1987
F0.0
sS'54133'
p1988
F0.0
sS'32072'
p1989
F0.0
sS'39089'
p1990
F0.0
sS'93237'
p1991
F0.0
sS'91233'
p1992
F0.0
sS'93235'
p1993
F0.0
sS'55137'
p1994
F0.0
sS'55136'
p1995
F0.0
sS'55135'
p1996
F0.0
sS'55134'
p1997
F0.0
sS'55133'
p1998
F0.0
sS'64154'
p1999
F0.000326299115389838
sS'56132'
p2000
F0.0
sS'49115'
p2001
F0.0
sS'56130'
p2002
F0.0
sS'13027'
p2003
F0.0
sS'56137'
p2004
F0.0
sS'31069'
p2005
F0.0
sS'49113'
p2006
F0.0
sS'90233'
p2007
F0.0
sS'90232'
p2008
F0.0
sS'45105'
p2009
F0.0
sS'90230'
p2010
F0.0
sS'45103'
p2011
F0.0
sS'39091'
p2012
F0.0
sS'47310'
p2013
F0.0
sS'52132'
p2014
F0.0
sS'17035'
p2015
F0.0
sS'52130'
p2016
F0.0
sS'17037'
p2017
F0.0
sS'92235'
p2018
F0.0
sS'94239'
p2019
F0.0
sS'61149'
p2020
F0.0
sS'93239'
p2021
F0.0
sS'16036'
p2022
F0.0
sS'56133'
p2023
F0.0
sS'95342'
p2024
F0.0
sS'63156'
p2025
F0.0
sS'95344'
p2026
F0.0
sS'53130'
p2027
F0.0
sS'51125'
p2028
F0.0
sS'91231'
p2029
F0.0
sS'91232'
p2030
F0.0
sS'53129'
p2031
F0.0
sS'96240'
p2032
F0.0
sS'96241'
p2033
F0.0
sS'96242'
p2034
F0.0
sS'51121'
p2035
F0.0
sS'68168'
p2036
F0.0
sS'16033'
p2037
F0.0
sS'15031'
p2038
F0.0
sS'90228'
p2039
F0.0
sS'90229'
p2040
F0.0
sS'19041'
p2041
F0.0
sS'19040'
p2042
F0.0
sS'44104'
p2043
F0.0
sS'44105'
p2044
F0.0
sS'44106'
p2045
F0.0
sS'50119'
p2046
F0.0
sS'44100'
p2047
F0.0
sS'44101'
p2048
F0.0
sS'44102'
p2049
F0.0
sS'16032'
p2050
F0.0
sS'50112'
p2051
F0.0
sS'31071'
p2052
F0.0
sS'52125'
p2053
F0.0
sS'38089'
p2054
F0.0
sS'1003'
p2055
F0.0
sS'1002'
p2056
F0.0
sS'1001'
p2057
F0.0
sS'50115'
p2058
F0.0
sS'96247'
p2059
F0.0
sS'14030'
p2060
F0.0
sS'63157'
p2061
F0.0
sS'52124'
p2062
F0.0
sS'62150'
p2063
F0.0
sS'59142'
p2064
F0.0
sS'3007'
p2065
F0.0
sS'3006'
p2066
F0.0
sS'60150'
p2067
F0.0
sS'93238'
p2068
F0.0
sS'54123'
p2069
F0.0
sS'32070'
p2070
F0.0
sS'7014'
p2071
F0.0
sS'7015'
p2072
F0.0
sS'32074'
p2073
F0.0
sS'32076'
p2074
F0.0
sS'50126'
p2075
F0.0
sS'50125'
p2076
F0.0
sS'50124'
p2077
F0.0
sS'50123'
p2078
F0.0
sS'50122'
p2079
F0.0
sS'33074'
p2080
F0.0
sS'33075'
p2081
F0.0
sS'68170'
p2082
F0.0
sS'94238'
p2083
F0.0
sS'37087'
p2084
F0.0
sS'37086'
p2085
F0.0
sS'37085'
p2086
F0.0
sS'30064'
p2087
F0.0
sS'38090'
p2088
F0.0
sS'52329'
p2089
F0.0
sS'52327'
p2090
F0.0
sS'53135'
p2091
F0.0
sS'32073'
p2092
F0.0
sS'11022'
p2093
F0.0
sS'66156'
p2094
F0.0
sS'53131'
p2095
F0.0
sS'18040'
p2096
F0.0
sS'96244'
p2097
F0.0
sS'56140'
p2098
F0.0
sS'34077'
p2099
F0.0
sS'34076'
p2100
F0.0
sS'34074'
p2101
F0.0
sS'34079'
p2102
F0.0
sS'34078'
p2103
F0.0
sS'96246'
p2104
F0.0
sS'12024'
p2105
F0.0
sS'12025'
p2106
F0.0
sS'12026'
p2107
F0.0
sS'22046'
p2108
F0.0
sS'60142'
p2109
F0.0
sS'60143'
p2110
F0.0
sS'68162'
p2111
F0.0
sS'64158'
p2112
F0.00371801377352816
sS'94244'
p2113
F0.0
sS'22049'
p2114
F0.0
sS'22048'
p2115
F0.0
sS'44098'
p2116
F0.0
sS'44099'
p2117
F0.0
sS'50120'
p2118
F0.0
sS'95242'
p2119
F0.0
sS'96243'
p2120
F0.0
sS'56134'
p2121
F0.0
sS'38086'
p2122
F0.0
sS'38087'
p2123
F0.0
sS'38084'
p2124
F0.0
sS'18036'
p2125
F0.0
sS'48315'
p2126
F0.0
sS'53127'
p2127
F0.0
sS'61147'
p2128
F0.0
sS'51124'
p2129
F0.0
sS'28064'
p2130
F0.0
sS'51126'
p2131
F0.0
sS'16034'
p2132
F0.0
sS'28061'
p2133
F0.0
sS'28060'
p2134
F0.0
sS'38088'
p2135
F0.0
sS'28062'
p2136
F0.0
sS'64156'
p2137
F0.00306391875781848
sS'92233'
p2138
F0.0
sS'43099'
p2139
F0.0
sS'62148'
p2140
F0.0
sS'92234'
p2141
F0.0
sS'96248'
p2142
F0.0
sS'50114'
p2143
F0.0
sS'56135'
p2144
F0.0
sS'66162'
p2145
F0.0
sS'96249'
p2146
F0.0
sS'36080'
p2147
F0.0
sS'47107'
p2148
F0.0
sS'6012'
p2149
F0.0
sS'39090'
p2150
F0.0
sS'22050'
p2151
F0.0
sS'92239'
p2152
F0.0
sS'35081'
p2153
F0.0
sS'93236'
p2154
F0.0
sS'36082'
p2155
F0.0
sS'36083'
p2156
F0.0
sS'36084'
p2157
F0.0
sS'18038'
p2158
F0.0
sS'36086'
p2159
F0.0
sS'42092'
p2160
F0.0
sS'4009'
p2161
F0.0
sS'62149'
p2162
F0.0
sS'94243'
p2163
F0.0
sS'90227'
p2164
F0.0
sS'47109'
p2165
F0.0
sS'59141'
p2166
F0.0
sS'66163'
p2167
F0.0
sS'50118'
p2168
F0.0
sS'36085'
p2169
F0.0
sS'26058'
p2170
F0.0
sS'61151'
p2171
F0.0
sS'42094'
p2172
F0.0
sS'42095'
p2173
F0.0
sS'42096'
p2174
F0.0
sS'19039'
p2175
F0.0
sS'42098'
p2176
F0.0
sS'42099'
p2177
F0.0
sS'26056'
p2178
F0.0
sS'26057'
p2179
F0.0
sS'26054'
p2180
F0.0
sS'92238'
p2181
F0.0
sS'14029'
p2182
F0.0
sS'94240'
p2183
F0.0
sS'67366'
p2184
F0.0
sS'66160'
p2185
F0.0
sS'44103'
p2186
F0.0
sS'23051'
p2187
F0.0
sS'95241'
p2188
F0.0
sS'64160'
p2189
F0.00327197186349838
sS'62154'
p2190
F0.0
sS'62153'
p2191
F0.0
sS'62152'
p2192
F0.0
sS'62151'
p2193
F0.0
sS'47111'
p2194
F0.0
sS'27059'
p2195
F0.0
sS'27058'
p2196
F0.0
sS'68167'
p2197
F0.0
sS'92237'
p2198
F0.0
sS'57139'
p2199
F0.0
sS'44096'
p2200
F0.0
sS'94241'
p2201
F0.0
sS'92236'
p2202
F0.0
sS'60147'
p2203
F0.0
sS'66161'
p2204
F0.0
sS'50116'
p2205
F0.0
sS'50113'
p2206
F0.0
sS'22047'
p2207
F0.0
sS'94242'
p2208
F0.0
sS'50117'
p2209
F0.0
sS'2003'
p2210
F0.0
sS'66158'
p2211
F0.0
sS'29065'
p2212
F0.0
sS'58139'
p2213
F0.0
sS'29063'
p2214
F0.0
sS'2004'
p2215
F0.0
sS'92241'
p2216
F0.0
sS'92232'
p2217
F0.0
sS'57138'
p2218
F0.0
sS'36078'
p2219
F0.0
sS'61148'
p2220
F0.0
ssg74
g75
sg445
S'absorbertank'
p2221
sg447
NsbasS'holeradius'
p2222
g15
(g19
S'\xfd\xfc7\xd5i\xef @'
p2223
tp2224
Rp2225
sS'betaEff'
p2226
F0.00513882
sS'maxdamageflux'
p2227
F62176900000000.0
sb.