ccopy_reg
_reconstructor
p0
(cRefuelCore
SerpentInputFile
p1
c__builtin__
object
p2
Ntp3
Rp4
(dp5
S'convratio'
p6
F0.653833
sS'geometry_name'
p7
S'MSRs2_geom.inp'
p8
sS'PowerNormalization'
p9
S'set power 300000000.0\n\n'
p10
sS'volumetricflows'
p11
(lp12
(S'refuel'
p13
S'fuel'
p14
cnumpy.core.multiarray
scalar
p15
(cnumpy
dtype
p16
(S'f8'
p17
I0
I1
tp18
Rp19
(I3
S'<'
p20
NNNI-1
I-1
I0
tp21
bS'\xa0\xf9!\xac\xee\x84J>'
p22
tp23
Rp24
tp25
a(S'absorbertank'
p26
g14
F0.0
tp27
a(S'Umetal'
p28
g14
F9.530995500861276e-11
tp29
a(g14
S'excessfueltank'
p30
g15
(g19
S'ML3\xde,W\x05>'
p31
tp32
Rp33
tp34
asS'PPN'
p35
I8
sS'ratioflows'
p36
(lp37
(g14
S'offgastank'
p38
(lp39
S'Xe'
p40
aS'Kr'
p41
aS'Ar'
p42
aS'Ne'
p43
aS'He'
p44
aS'Ra'
p45
aF0.02
tp46
asS'pitch'
p47
F60.0
sS'OffGasRate'
p48
NsS'convratiolist'
p49
(lp50
F0.653924
aF0.653833
asS'AbsorberAdditionRate'
p51
NsS'core_size'
p52
S'4m'
p53
sS'job_done'
p54
I00
sS'salt_type'
p55
S'dnafkf'
p56
sS'num_particles'
p57
I10000
sS'salt_fraction'
p58
F0.35
sS'holeradius'
p59
g15
(g19
S'/\xaaUp\x11\xa32@'
p60
tp61
Rp62
sS'num_nodes'
p63
I10
sS'submitted_once'
p64
I01
sS'refuelenrichment'
p65
F0.2
sS'initial_enrichment'
p66
F0.027063
sS'keff'
p67
F1.00011
sS'power'
p68
F300000000.0
sS'tmp_or_tms'
p69
S'tmp'
p70
sS'BurnTime'
p71
(lp72
S'7.0'
p73
asS'inputfilename'
p74
S'nafkf4mcore'
p75
sS'num_cycles'
p76
I500
sS'directory'
p77
S'.'
p78
sS'fuelvolume'
p79
F20036233.8961492
sS'num_skipped_cycles'
p80
I100
sS'pmem'
p81
NsS'case'
p82
I1
sS'xslibfiles'
p83
S'set acelib "sss_endfb7u.xsdata"\nset nfylib "sss_endfb7.nfy"\nset declib "sss_endfb7.dec"\n\n'
p84
sS'kefflist'
p85
(lp86
F1.00011
asS'RefuelRate'
p87
NsS'queue'
p88
S'gen5'
p89
sS'tempK'
p90
I900
sS'betalist'
p91
(lp92
F0.00695824
aF0.00679653
aF0.00691355
aF0.0067132
aF0.00679501
aF0.00676526
aF0.00677891
aF0.00673633
aF0.00674227
aF0.0068363
aF0.00672619
aF0.00673161
aF0.00682554
aF0.00679036
aF0.00662881
aF0.00674351
aF0.00669727
aF0.00650709
aF0.00662395
aF0.00678112
aF0.00669318
aF0.00669704
aF0.00665353
aF0.00662699
aF0.0067033
aF0.00668358
aF0.00661262
aF0.00661234
aF0.0065949
aF0.00668144
aF0.00657035
aF0.00661032
aF0.00672255
aF0.00649658
aF0.00662213
aF0.00645496
aF0.00646544
aF0.00664917
aF0.00647628
aF0.00658921
aF0.00653094
aF0.00660715
aF0.00652205
aF0.00663328
aF0.00649325
aF0.00645742
aF0.00651459
aF0.00655179
aF0.00650823
aF0.00653349
aF0.00658581
aF0.00647682
aF0.00654383
aF0.00642024
aF0.00655677
aF0.0064817
aF0.00642987
aF0.00645217
aF0.00646653
aF0.00641831
aF0.00645895
aF0.0064594
aF0.00646064
aF0.00648088
aF0.00643275
aF0.00644388
aF0.00632199
aF0.00650668
aF0.00642418
aF0.00633161
aF0.00638923
aF0.00641939
aF0.00631949
aF0.00633942
aF0.00643071
aF0.00639042
aF0.00645177
aF0.00630422
aF0.0063823
aF0.00631165
aF0.00625578
aF0.00629829
aF0.00638902
aF0.00635235
aF0.00637125
aF0.0063659
aF0.00632272
aF0.00635547
aF0.00632541
aF0.00642586
aF0.00639093
aF0.00637517
aF0.00638787
aF0.00635141
aF0.00629401
aF0.00614793
aF0.00630758
aF0.0063563
aF0.00623173
aF0.00631124
aF0.00634313
aF0.00629443
aF0.00638931
aF0.00630882
aF0.0063114
aF0.00628094
aF0.00631905
aF0.00634579
aF0.00621783
aF0.00622403
aF0.00634265
aF0.00632695
aF0.00630264
aF0.00622548
aF0.00617609
aF0.00621429
aF0.00620838
aF0.00622416
aF0.00619828
aF0.00621327
aF0.00618118
aF0.00625672
aF0.00620837
aF0.00618137
aF0.00617
aF0.00613598
aF0.0061371
aF0.00623044
aF0.00618327
aF0.00623986
aF0.00608589
aF0.0062332
aF0.00631999
aF0.00619924
aF0.00627607
aF0.00620528
aF0.00618272
aF0.00625326
aF0.0061896
aF0.00618418
aF0.00613931
aF0.00618921
aF0.00621263
aF0.00619862
aF0.00613284
aF0.00616343
aF0.0060927
aF0.00619951
aF0.00609739
aF0.00608145
aF0.00613033
aF0.00613995
aF0.00614391
aF0.00618204
aF0.00616052
aF0.00617432
aF0.00624557
aF0.0061193
aF0.00610648
aF0.00613146
aF0.00612098
aF0.00607068
aF0.00614262
aF0.00619104
aF0.00617709
aF0.00613611
aF0.00604275
aF0.00614216
aF0.00605462
aF0.0061051
aF0.00611882
aF0.00614285
aF0.00611703
aF0.00604032
aF0.00606343
aF0.00603994
aF0.0061313
aF0.00605221
aF0.00611184
aF0.00606409
aF0.00614103
aF0.00604111
aF0.00602215
aF0.00594986
aF0.00603095
aF0.00609363
aF0.00611243
aF0.00600128
aF0.00601877
aF0.00608038
aF0.00607649
aF0.00602976
aF0.00602398
aF0.00602383
aF0.00601219
aF0.0059846
aF0.00604292
aF0.00612134
aF0.00608497
aF0.00597273
aF0.00603332
aF0.00601796
aF0.00603842
aF0.0060168
aF0.00606928
aF0.00605796
aF0.00606317
aF0.00606864
aF0.0060696
aF0.00599008
aF0.00602075
aF0.00602449
aF0.00602952
aF0.00602688
aF0.00600677
aF0.00593285
aF0.00595829
aF0.00594492
aF0.00598471
aF0.00596153
aF0.00592949
aF0.00604875
aF0.00607616
aF0.00594483
aF0.0059412
aF0.00600282
aF0.00599228
aF0.0059737
aF0.00594658
aF0.00596374
aF0.00602688
aF0.00608605
aF0.00598799
aF0.00593555
aF0.00596076
aF0.00593713
aF0.00588778
aF0.00602222
aF0.00604557
aF0.00600733
aF0.00599851
aF0.00594791
aF0.00597215
aF0.00593548
aF0.00602296
aF0.00603458
aF0.0058939
aF0.00599861
aF0.00585694
aF0.00594749
aF0.00588764
aF0.00596649
aF0.00590034
aF0.00585882
aF0.00604908
aF0.00593042
aF0.00586773
aF0.00605859
aF0.00592993
aF0.00581862
aF0.00591785
aF0.00592776
aF0.00591991
aF0.00595646
aF0.00589069
aF0.00584859
aF0.00585921
aF0.0059012
aF0.00582695
aF0.00598431
aF0.00587085
aF0.00586201
aF0.00591943
aF0.00603484
aF0.00585065
aF0.00593854
aF0.00579574
aF0.00585999
aF0.00593544
aF0.00594481
aF0.00579219
aF0.00597365
aF0.00590785
aF0.00583862
aF0.00598105
aF0.00588208
aF0.00597085
aF0.00595353
aF0.00579986
aF0.00590043
aF0.00588566
aF0.00584583
aF0.00580347
aF0.00595927
aF0.00585019
aF0.00590781
aF0.00586786
aF0.00588332
aF0.00585865
aF0.00579092
aF0.00580139
aF0.00586416
aF0.00583219
aF0.00585473
aF0.00580402
aF0.00581535
aF0.00583841
aF0.00583058
aF0.00586969
aF0.00581317
aF0.00588201
aF0.00581308
aF0.00580586
aF0.0059887
aF0.00583046
aF0.00578332
aF0.00587083
aF0.0059487
aF0.00591675
aF0.00581632
aF0.00580071
aF0.0058955
aF0.00580948
aF0.00593427
aF0.00579806
aF0.0057975
aF0.00583594
aF0.00582662
aF0.00583227
aF0.00586871
aF0.00572578
aF0.00596847
aF0.00584428
aF0.0059128
aF0.0058299
aF0.00580608
aF0.00578601
aF0.00580166
aF0.00580799
aF0.00575922
aF0.00586736
aF0.00588824
aF0.00579296
aF0.0058553
aF0.00571845
aF0.00571511
aF0.00588534
aF0.00589344
aF0.00591446
aF0.00584511
aF0.00576609
aF0.00587299
aF0.00572024
aF0.0058223
aF0.00582766
aF0.0057258
aF0.00583908
aF0.005843
aF0.00573888
aF0.00584628
aF0.00586685
aF0.00580418
aF0.00577606
aF0.0058141
aF0.00579993
aF0.00575879
aF0.005792
aF0.0058342
aF0.00577054
aF0.00578689
aF0.00580525
aF0.00579042
aF0.00580661
aF0.00575281
aF0.00573807
aF0.00576533
aF0.00579344
aF0.00576759
aF0.0057196
aF0.0058592
aF0.00589847
aF0.00586595
aF0.00570913
aF0.00579337
aF0.00581232
aF0.00578357
aF0.00578112
aF0.00579402
aF0.00573631
aF0.00578084
aF0.00579645
aF0.00573746
aF0.00582298
aF0.00577904
aF0.00579206
aF0.0058119
aF0.00578072
aF0.00575123
aF0.00570742
aF0.0058586
aF0.00573001
aF0.00576186
aF0.00578338
aF0.00577137
aF0.00576334
aF0.00586293
aF0.00572329
aF0.00571884
aF0.00582246
aF0.00582965
aF0.00569687
aF0.00579451
aF0.00578599
aF0.00578401
aF0.00574737
aF0.00576658
aF0.00581678
aF0.00573743
aF0.00582819
aF0.00574196
aF0.00569068
aF0.00576292
aF0.00575569
aF0.00578637
aF0.00572005
aF0.00576401
aF0.00565984
aF0.00573091
aF0.00568686
aF0.00578036
aF0.00571548
aF0.00567859
aF0.00568229
aF0.0057061
aF0.00574283
aF0.00576936
aF0.00563598
aF0.00568364
aF0.00582695
aF0.00568119
aF0.00579311
aF0.00577736
aF0.00570226
aF0.0057655
aF0.0055828
aF0.00567875
aF0.005708
aF0.00569338
aF0.00569266
aF0.00570605
aF0.00575269
aF0.00562158
aF0.00570044
aF0.00571835
aF0.00580662
aF0.00569034
aF0.00572482
aF0.00568496
aF0.00572379
aF0.00562391
aF0.00567137
aF0.00574914
aF0.00577853
aF0.00577898
aF0.00576009
aF0.00572419
aF0.00560622
aF0.00571469
aF0.00572808
aF0.00565603
aF0.00571737
aF0.0056001
aF0.0055856
aF0.00575339
aF0.00566471
aF0.00580087
aF0.00576043
aF0.005735
aF0.00572113
aF0.00571388
aF0.00574576
aF0.00567922
aF0.00584703
aF0.00577707
aF0.00569109
aF0.00574931
aF0.00578752
aF0.00575707
aF0.00572267
aF0.00569979
aF0.00576927
aF0.0055516
aF0.00574019
aF0.00568877
aF0.00568398
aF0.00567944
aF0.00561286
aF0.00573266
aF0.00571735
aF0.00577514
aF0.00575647
aF0.00578517
aF0.00563159
aF0.00563134
aF0.00570863
aF0.00581268
aF0.00566501
aF0.00574356
aF0.00569089
aF0.00561858
aF0.00570624
aF0.00574719
aF0.00569397
aF0.00575053
aF0.00572104
aF0.00566233
aF0.0056776
aF0.00573086
aF0.00567495
aF0.00565964
aF0.00571255
aF0.00563581
aF0.00566845
aF0.0056816
aF0.00564701
aF0.00561554
aF0.00562804
aF0.0056678
aF0.00563622
aF0.00566129
aF0.00567845
aF0.00567282
aF0.00570838
aF0.0056499
aF0.00565407
aF0.00569336
aF0.00568115
aF0.00571824
aF0.0056781
aF0.00566083
aF0.00564012
aF0.00563465
aF0.00564132
aF0.00560972
aF0.00566814
aF0.00567148
aF0.00566633
aF0.0056986
aF0.00565507
aF0.0056628
aF0.00564013
aF0.00566666
aF0.00565898
aF0.0056224
aF0.00565568
aF0.00558905
aF0.00556099
aF0.00568557
aF0.00557261
aF0.00556344
aF0.0055844
aF0.00555535
aF0.00563361
aF0.00564093
aF0.00560311
aF0.00567072
aF0.00566137
aF0.00564066
aF0.00559426
aF0.00561248
aF0.0056438
aF0.00567167
aF0.00561572
aF0.00567108
aF0.00573116
aF0.00565641
aF0.00567782
aF0.00572134
aF0.00561814
aF0.00560945
aF0.00557689
aF0.00572212
aF0.00570109
aF0.00570978
aF0.00573137
aF0.00569198
aF0.00564904
aF0.00566421
aF0.00564822
aF0.00566869
aF0.00566161
aF0.00568986
aF0.00568262
aF0.00552018
aF0.00564328
aF0.00564918
aF0.00557226
aF0.00561872
aF0.00565642
aF0.00559283
aF0.00568519
aF0.00560806
aF0.00566173
aF0.00567689
aF0.00567616
aF0.00570993
aF0.00563201
aF0.00567287
aF0.0056867
aF0.00575305
aF0.00568187
aF0.00562971
aF0.0055012
aF0.0057751
aF0.00561566
aF0.00562745
aF0.00567398
aF0.00569022
aF0.00567855
aF0.00561046
aF0.00563556
aF0.00559455
aF0.00564184
aF0.00564598
aF0.00562146
aF0.00558674
aF0.0055841
aF0.00550852
aF0.00559315
aF0.00559678
aF0.005666
aF0.00564272
aF0.00557679
aF0.00565164
aF0.0055524
aF0.00566868
aF0.00567529
aF0.00563795
aF0.00566621
aF0.0055563
aF0.00563203
aF0.00563248
aF0.00561286
aF0.0056412
aF0.00564753
aF0.00566661
aF0.00560777
aF0.00564947
aF0.00562389
aF0.00557717
aF0.00560252
aF0.00554912
aF0.00555578
aF0.00565504
aF0.00554023
aF0.0055004
aF0.00567238
aF0.00556374
aF0.00552625
aF0.0055643
aF0.00559586
aF0.00564511
aF0.00561166
aF0.00559997
aF0.00564734
aF0.00565836
aF0.00556934
aF0.00558061
aF0.00565051
aF0.00562442
aF0.00553148
aF0.00568524
aF0.00557826
aF0.00562486
aF0.00559979
aF0.00561922
aF0.00557685
aF0.00554065
aF0.00560033
aF0.00563485
aF0.00564611
aF0.00565632
aF0.00549757
aF0.00572137
aF0.0056417
aF0.00558058
aF0.0056155
aF0.00576099
aF0.00549066
aF0.00558789
aF0.00556337
aF0.00563215
aF0.00562395
aF0.0055488
aF0.0055777
aF0.00560723
aF0.00555704
aF0.00554677
aF0.00565252
aF0.00559254
aF0.00567759
aF0.00562736
aF0.00560237
aF0.00565975
aF0.00552426
aF0.0055362
aF0.0055877
aF0.00559063
aF0.00560365
aF0.00558184
aF0.0055824
aF0.00560749
aF0.00566528
aF0.00549899
aF0.00559973
aF0.0055581
aF0.00554164
aF0.00553017
aF0.00563297
aF0.00562476
aF0.00565923
aF0.00558096
aF0.00563079
aF0.00548524
aF0.00570755
aF0.00555103
aF0.00557945
aF0.0055563
aF0.00554237
aF0.00553785
aF0.00561248
aF0.00564625
aF0.00558781
aF0.00557736
aF0.00556738
aF0.00561505
aF0.00562306
aF0.00560879
aF0.00564993
aF0.00561124
aF0.00565914
aF0.00555946
aF0.00560865
aF0.00559705
aF0.00554808
aF0.00555115
aF0.00550357
aF0.00553942
aF0.00547513
aF0.00557199
aF0.00563803
aF0.00556384
aF0.00568991
aF0.00563854
aF0.00549113
aF0.00559815
aF0.00556255
aF0.00557871
aF0.00566568
aF0.00557281
aF0.00561283
aF0.00556595
aF0.00561424
aF0.00552549
aF0.00559102
aF0.00552399
aF0.00557866
aF0.00558107
aF0.00554407
aF0.0055855
aF0.00566942
aF0.00553603
aF0.00559292
aF0.00556115
aF0.00549103
aF0.00558914
aF0.00558854
aF0.00551712
aF0.00563157
aF0.00558508
aF0.00546585
aF0.00556526
aF0.00568529
aF0.0055141
aF0.00551806
aF0.0056379
aF0.00555089
aF0.00554767
aF0.00548354
aF0.00558365
aF0.0056246
aF0.00556355
aF0.00550573
aF0.0055487
aF0.00557564
aF0.00560092
aF0.00554034
aF0.00550061
aF0.00559266
aF0.00562857
aF0.0055319
aF0.00560535
aF0.00553515
aF0.00559905
aF0.00554961
aF0.00559403
aF0.00559151
aF0.00561588
aF0.00557279
aF0.00553736
aF0.00552466
aF0.00565461
aF0.00555676
aF0.0056228
aF0.00567599
aF0.00553514
aF0.00555405
aF0.00558952
aF0.00562544
aF0.00560654
aF0.00559933
aF0.00553913
aF0.0055582
aF0.005547
aF0.00546647
aF0.00554558
aF0.00557459
aF0.0055347
aF0.00559946
aF0.00550323
aF0.00558137
aF0.00560768
aF0.00556688
aF0.005658
aF0.00556868
aF0.00553289
aF0.00554293
aF0.00555143
aF0.00560774
aF0.00553567
aF0.00556042
aF0.00551915
aF0.00554541
aF0.00552435
aF0.00557303
aF0.00557288
aF0.00546271
aF0.00549329
aF0.0055052
aF0.00553335
aF0.00556302
aF0.00551181
aF0.00569963
aF0.00559041
aF0.0055897
aF0.00558434
aF0.00561493
aF0.00544973
aF0.00559978
aF0.00560451
aF0.00561977
aF0.00559124
aF0.00552549
aF0.00553331
aF0.00553863
aF0.00557283
aF0.00556682
aF0.00545298
aF0.00550493
aF0.00558863
aF0.00556458
aF0.00550104
aF0.00554976
aF0.00559854
aF0.00552164
aF0.00558259
aF0.00548867
aF0.0055629
aF0.0055934
aF0.00553077
aF0.00553077
aF0.00549624
aF0.00550254
aF0.00545975
aF0.00557664
aF0.00551844
aF0.00553044
aF0.00553901
aF0.0056056
aF0.00542576
aF0.00551369
aF0.00556358
aF0.00542181
aF0.00554431
aF0.00558332
aF0.00552907
aF0.0055814
aF0.00557338
aF0.00561112
aF0.00552211
aF0.00549605
aF0.00551962
aF0.00549514
aF0.0055237
aF0.00554374
aF0.00554393
aF0.00559814
aF0.00547801
aF0.00557184
aF0.00555873
aF0.00551179
aF0.00552951
aF0.00555792
aF0.00545949
aF0.00547712
aF0.00559103
aF0.00551221
aF0.00552255
aF0.0055814
aF0.0055275
aF0.00554843
aF0.00536936
aF0.00551491
aF0.00556526
aF0.00553614
aF0.00550418
aF0.00556229
aF0.0054901
aF0.00559865
aF0.0055458
aF0.00548555
aF0.005446
aF0.00553213
aF0.00554744
aF0.00550293
aF0.0055207
aF0.0055194
aF0.00558983
aF0.0054647
aF0.00552745
aF0.00554785
aF0.00553813
aF0.00559586
aF0.00555602
aF0.00551151
aF0.00558033
aF0.00555029
aF0.00556951
aF0.00553269
aF0.00548092
aF0.00552411
aF0.00552126
aF0.00561844
aF0.00551456
aF0.00551597
aF0.00554801
aF0.00556544
aF0.00553973
aF0.0055016
aF0.00554073
aF0.00557265
aF0.00545492
aF0.00546524
aF0.00552231
aF0.00549483
aF0.00553742
aF0.00554832
aF0.00548263
aF0.00552393
aF0.00549899
aF0.00548863
aF0.00548574
aF0.00547075
aF0.00554085
aF0.00551182
aF0.00556486
aF0.00550901
aF0.00550309
aF0.00550445
aF0.00549347
aF0.00556439
aF0.00558568
aF0.00548543
aF0.00554745
aF0.00552693
aF0.0055152
aF0.00546697
aF0.00556601
aF0.00550382
aF0.00553366
aF0.00552413
aF0.00549785
asS'materials'
p93
(lp94
g0
(cRefuelCore
SerpentMaterial
p95
g2
Ntp96
Rp97
(dp98
S'atomdensity'
p99
F0.077318063648576
sS'density'
p100
F0.077318063648576
sg90
S''
p101
sS'burn'
p102
I01
sS'xstemplib'
p103
S'.09c'
p104
sS'volume'
p105
F20036200.0
sS'isotopic_content'
p106
(dp107
S'58138'
p108
F2.01362918120285e-14
sS'48116'
p109
F4.31831400692239e-08
sS'66164'
p110
F2.23777324275913e-10
sS'48114'
p111
F9.83412285366708e-08
sS'48113'
p112
F3.80407405432185e-09
sS'48112'
p113
F6.14990494818829e-08
sS'48111'
p114
F1.31625972602007e-07
sS'21045'
p115
F7.80324340480741e-19
sS'95243'
p116
F5.41837774210669e-08
sS'63151'
p117
F3.72458047873436e-09
sS'58136'
p118
F1.1166629342166e-24
sS'60146'
p119
F4.20630544779073e-06
sS'61348'
p120
F2.5890577240835e-09
sS'62144'
p121
F2.40890421743182e-21
sS'62147'
p122
F1.61919637189901e-06
sS'8017'
p123
F1.00532807103564e-09
sS'8016'
p124
F2.00520676392536e-06
sS'40090'
p125
F4.34734672764242e-07
sS'40091'
p126
F5.41304642407965e-06
sS'40096'
p127
F8.22731422446625e-06
sS'40094'
p128
F8.12198313174786e-06
sS'40095'
p129
F2.15639883817261e-07
sS'46102'
p130
F1.48813253522567e-14
sS'96250'
p131
F3.69709471433447e-24
sS'46106'
p132
F1.71031170166427e-06
sS'46107'
p133
F1.27305594026538e-06
sS'46104'
p134
F8.87114913157725e-07
sS'46105'
p135
F2.93315887356172e-06
sS'63154'
p136
F6.83009019582554e-08
sS'63155'
p137
F2.5476519292286e-08
sS'46108'
p138
F8.15997725184335e-07
sS'48110'
p139
F5.69025329797322e-08
sS'28058'
p140
F5.85905859383365e-44
sS'28059'
p141
F4.07131984133501e-37
sS'63152'
p142
F3.4427593147135e-09
sS'58140'
p143
F6.97651216286234e-06
sS'54131'
p144
F7.0137930751082e-13
sS'64153'
p145
F3.31025765990062e-11
sS'64152'
p146
F1.13839398305236e-09
sS'64155'
p147
F1.52271914069795e-08
sS'60148'
p148
F2.31840257723847e-06
sS'64157'
p149
F2.78260689400587e-09
sS'60144'
p150
F6.70091291029842e-06
sS'57140'
p151
F4.86906652831127e-09
sS'56136'
p152
F3.5877274453289e-08
sS'58142'
p153
F7.53223434663606e-06
sS'96245'
p154
F2.61616584215603e-10
sS'34082'
p155
F4.1194627262318e-07
sS'46110'
p156
F2.59838908574284e-07
sS'42100'
p157
F8.80224079831754e-06
sS'48106'
p158
F1.43438001934129e-19
sS'48108'
p159
F5.26310397061458e-13
sS'63153'
p160
F4.62609943671338e-07
sS'42097'
p161
F5.04543438327469e-06
sS'14028'
p162
F1.2960694002685e-22
sS'41093'
p163
F5.39524469140672e-13
sS'24050'
p164
F2.00875663085951e-61
sS'24052'
p165
F1.89339179831131e-44
sS'24053'
p166
F1.79765074353079e-44
sS'24054'
p167
F1.07531511009278e-39
sS'54126'
p168
F1.26725244907384e-20
sS'54124'
p169
F2.22112256148228e-36
sS'65159'
p170
F1.08278475495992e-08
sS'58144'
p171
F8.01659448994766e-07
sS'54129'
p172
F7.73960840210552e-20
sS'54128'
p173
F1.36792509155765e-15
sS'58141'
p174
F9.98098300931886e-08
sS'56138'
p175
F1.09217773676609e-06
sS'58143'
p176
F4.25550353903585e-09
sS'41094'
p177
F5.88948087923083e-12
sS'20043'
p178
F1.64655717305241e-10
sS'20042'
p179
F6.60929382908687e-07
sS'34080'
p180
F1.64616563208891e-07
sS'20040'
p181
F2.10839539449157e-14
sS'41095'
p182
F1.17099064723856e-07
sS'20046'
p183
F6.15830264126373e-37
sS'11023'
p184
F0.0137266313672999
sS'20044'
p185
F3.90955376681434e-13
sS'60145'
p186
F4.61267701482346e-06
sS'20048'
p187
F3.99486015164256e-47
sS'67165'
p188
F1.2267128537735e-10
sS'35079'
p189
F3.29863693052201e-11
sS'68164'
p190
F4.95293492360083e-15
sS'92240'
p191
F1.71690246465487e-14
sS'51123'
p192
F4.60051881205559e-08
sS'59143'
p193
F4.18714120484524e-08
sS'68166'
p194
F2.09177072006627e-11
sS'90234'
p195
F1.04513705100654e-13
sS'5010'
p196
F5.5037314072954e-24
sS'5011'
p197
F3.08453704965194e-15
sS'65160'
p198
F5.53344326105515e-11
sS'52126'
p199
F5.19632662012906e-09
sS'52120'
p200
F7.54027586149243e-18
sS'52123'
p201
F2.98369003259815e-12
sS'52122'
p202
F4.32628714165056e-10
sS'94237'
p203
F7.34998471944943e-14
sS'94236'
p204
F9.72792482017478e-15
sS'25055'
p205
F2.69646748070426e-37
sS'52128'
p206
F5.71826979615092e-07
sS'40092'
p207
F6.76353297583854e-06
sS'95244'
p208
F3.4566999732144e-13
sS'40093'
p209
F7.06254585243971e-06
sS'54134'
p210
F1.7829808573894e-12
sS'54135'
p211
F1.35826547444464e-12
sS'54136'
p212
F1.5024114825633e-12
sS'54130'
p213
F5.1562076648696e-15
sS'9019'
p214
F0.050015970704197
sS'54132'
p215
F1.07149268154006e-12
sS'54133'
p216
F1.52933167180974e-12
sS'32072'
p217
F6.44196922132048e-11
sS'39089'
p218
F1.08148684131255e-06
sS'93237'
p219
F1.13664232225119e-06
sS'91233'
p220
F4.04173929582545e-14
sS'93235'
p221
F1.70078416137981e-15
sS'55137'
p222
F1.21714081085211e-06
sS'55136'
p223
F1.22394749823134e-10
sS'55135'
p224
F1.27553833437086e-08
sS'55134'
p225
F9.42143945625012e-11
sS'55133'
p226
F5.57785881543092e-10
sS'64154'
p227
F3.05606222433333e-08
sS'56132'
p228
F2.84907458038058e-15
sS'49115'
p229
F1.4538374183974e-08
sS'56130'
p230
F2.28077309370283e-24
sS'13027'
p231
F2.9653540142032e-20
sS'56137'
p232
F1.37640041112968e-07
sS'31069'
p233
F1.51303060221916e-11
sS'49113'
p234
F2.96858096840949e-13
sS'90233'
p235
F1.11994850722522e-18
sS'90232'
p236
F3.92186487874695e-12
sS'45105'
p237
F2.15181950965054e-09
sS'90230'
p238
F1.38278494513883e-13
sS'45103'
p239
F4.68352342188165e-06
sS'39091'
p240
F1.28797201776517e-07
sS'47310'
p241
F5.00807089010479e-10
sS'52132'
p242
F8.39077325163959e-09
sS'17035'
p243
F3.54589702020176e-10
sS'52130'
p244
F2.65588416744166e-06
sS'17037'
p245
F6.27933696776452e-09
sS'92235'
p246
F0.000357295925861146
sS'94239'
p247
F6.42214162202465e-05
sS'61149'
p248
F1.51232580108275e-09
sS'93239'
p249
F1.05060038850672e-07
sS'16036'
p250
F1.35004968713738e-15
sS'56133'
p251
F4.22789094621969e-15
sS'95342'
p252
F6.79326261218084e-09
sS'63156'
p253
F1.31388800586348e-09
sS'95344'
p254
F2.22233543053699e-13
sS'53130'
p255
F6.01919509223922e-12
sS'51125'
p256
F3.59130436620849e-08
sS'91231'
p257
F2.46006837866389e-12
sS'91232'
p258
F5.99616671662035e-16
sS'53129'
p259
F1.0089758561972e-06
sS'96240'
p260
F2.23918573337907e-19
sS'96241'
p261
F1.36213778745872e-16
sS'96242'
p262
F2.2297942317567e-08
sS'51121'
p263
F2.94917307121381e-08
sS'68168'
p264
F1.41400898822153e-11
sS'16033'
p265
F4.69723097382755e-18
sS'15031'
p266
F8.87780416083327e-18
sS'90228'
p267
F8.67437592210692e-15
sS'90229'
p268
F1.09511789392477e-15
sS'19041'
p269
F0.000374763740272985
sS'19040'
p270
F7.61142726895619e-06
sS'44104'
p271
F4.12792409740003e-06
sS'44105'
p272
F2.71304708150622e-10
sS'44106'
p273
F3.5706580274099e-07
sS'50119'
p274
F3.807630972487e-08
sS'44100'
p275
F3.46230129153798e-07
sS'44101'
p276
F7.23667012759222e-06
sS'44102'
p277
F6.83363597356793e-06
sS'16032'
p278
F1.53484514756038e-15
sS'50112'
p279
F1.29057570342731e-17
sS'31071'
p280
F5.3304922372155e-11
sS'52125'
p281
F4.20144144978691e-08
sS'38089'
p282
F2.21765368874385e-08
sS'1003'
p283
F7.83793376352322e-10
sS'1002'
p284
F5.84340576833817e-09
sS'1001'
p285
F4.64682831788018e-09
sS'50115'
p286
F1.10703754053714e-09
sS'96247'
p287
F3.45706882656157e-14
sS'14030'
p288
F5.87328041490647e-21
sS'63157'
p289
F1.11047567536021e-11
sS'52124'
p290
F7.98091283782297e-10
sS'62150'
p291
F1.47293542879519e-06
sS'59142'
p292
F4.02473666718243e-11
sS'3007'
p293
F4.23642234017089e-22
sS'3006'
p294
F2.54616731928785e-22
sS'60150'
p295
F1.04059519837491e-06
sS'93238'
p296
F3.32932462765666e-10
sS'54123'
p297
F2.59109070414883e-49
sS'32070'
p298
F1.18704492291292e-13
sS'7014'
p299
F1.41194307760498e-14
sS'7015'
p300
F5.21008128072951e-07
sS'32074'
p301
F7.25854315278578e-10
sS'32076'
p302
F4.79764734162733e-09
sS'50126'
p303
F1.41920339567136e-07
sS'50125'
p304
F2.39439460881292e-10
sS'50124'
p305
F7.16160739345121e-08
sS'50123'
p306
F1.24294162342188e-09
sS'50122'
p307
F4.2952896703467e-08
sS'33074'
p308
F3.45614121419892e-17
sS'33075'
p309
F1.7487015360309e-09
sS'68170'
p310
F1.71246980547197e-12
sS'94238'
p311
F2.59387190118767e-07
sS'37087'
p312
F2.93885095164012e-08
sS'37086'
p313
F1.08106452120585e-12
sS'37085'
p314
F4.8961228332783e-09
sS'30064'
p315
F9.91764120696158e-22
sS'38090'
p316
F3.55640634084805e-06
sS'52329'
p317
F1.58899551940194e-11
sS'52327'
p318
F3.44300070936082e-10
sS'53135'
p319
F9.98358984079723e-10
sS'32073'
p320
F2.80981180577559e-10
sS'11022'
p321
F1.47041157599199e-11
sS'66156'
p322
F1.81347661002581e-18
sS'53131'
p323
F1.41915016796328e-08
sS'18040'
p324
F1.93575597737432e-15
sS'96244'
p325
F7.66524546250424e-09
sS'56140'
p326
F3.67601916433009e-08
sS'34077'
p327
F6.70574176582706e-09
sS'34076'
p328
F3.32889677990716e-11
sS'34074'
p329
F9.92445269487595e-16
sS'34079'
p330
F6.12599983990989e-08
sS'34078'
p331
F2.8549981801218e-08
sS'96246'
p332
F4.63901917253395e-12
sS'12024'
p333
F3.706426605563e-06
sS'12025'
p334
F1.00474113054713e-10
sS'12026'
p335
F5.08126337572381e-15
sS'22046'
p336
F6.37425448031416e-23
sS'60142'
p337
F6.69104228152088e-08
sS'60143'
p338
F6.96899703561776e-06
sS'68162'
p339
F1.32741955962345e-18
sS'64158'
p340
F2.96300125769451e-07
sS'94244'
p341
F3.41920317876954e-12
sS'22049'
p342
F1.01534584588216e-33
sS'22048'
p343
F1.81774631337095e-30
sS'44098'
p344
F2.10138634058765e-15
sS'44099'
p345
F3.69507795281888e-10
sS'50120'
p346
F3.77413987757628e-08
sS'95242'
p347
F1.24886537122467e-10
sS'96243'
p348
F3.22678744770804e-10
sS'56134'
p349
F1.66517490612025e-10
sS'38086'
p350
F9.5222547351707e-11
sS'38087'
p351
F1.04788382537178e-11
sS'38084'
p352
F2.01805458777083e-16
sS'18036'
p353
F4.75126624377197e-21
sS'48315'
p354
F6.40954583155177e-11
sS'53127'
p355
F1.21951369908209e-07
sS'61147'
p356
F1.03211174908223e-06
sS'51124'
p357
F3.84159187776254e-11
sS'28064'
p358
F2.20148002084333e-21
sS'51126'
p359
F2.22454057992682e-11
sS'16034'
p360
F3.16756745983267e-15
sS'28061'
p361
F2.55711328187406e-24
sS'28060'
p362
F9.87948462276004e-30
sS'38088'
p363
F5.44344213199259e-08
sS'28062'
p364
F1.0653770131928e-22
sS'64156'
p365
F3.52007905606442e-07
sS'92233'
p366
F7.16098168405145e-12
sS'43099'
p367
F7.71763296653407e-06
sS'62148'
p368
F4.86477604044862e-07
sS'92234'
p369
F1.46786016748207e-08
sS'96248'
p370
F8.44887923513339e-16
sS'50114'
p371
F3.67104435196517e-14
sS'56135'
p372
F5.12286246442046e-12
sS'66162'
p373
F7.88574491057492e-10
sS'96249'
p374
F1.12336458029308e-21
sS'36080'
p375
F4.98475782798846e-19
sS'47107'
p376
F5.5680087857148e-13
sS'6012'
p377
F1.29795623730155e-13
sS'39090'
p378
F9.02173071637454e-10
sS'22050'
p379
F1.28762464492416e-37
sS'92239'
p380
F7.2618430504911e-10
sS'35081'
p381
F2.66648521958859e-07
sS'93236'
p382
F2.69675243267513e-12
sS'36082'
p383
F1.60959230911366e-15
sS'36083'
p384
F2.05656922709916e-15
sS'36084'
p385
F1.89738673540305e-13
sS'18038'
p386
F2.04144013456137e-15
sS'36086'
p387
F3.42758374593767e-13
sS'42092'
p388
F1.06345557601661e-19
sS'4009'
p389
F6.64251135468162e-18
sS'62149'
p390
F7.35539480219675e-08
sS'94243'
p391
F1.28740536142546e-11
sS'90227'
p392
F2.51836966206506e-21
sS'47109'
p393
F4.41759932687433e-07
sS'59141'
p394
F7.30696151213286e-06
sS'66163'
p395
F4.09773359175178e-10
sS'50118'
p396
F3.84352515610252e-08
sS'36085'
p397
F1.46074382241276e-14
sS'26058'
p398
F6.26506724240435e-30
sS'61151'
p399
F3.70694426873656e-10
sS'42094'
p400
F2.55903300051688e-11
sS'42095'
p401
F7.70524356153741e-06
sS'42096'
p402
F2.19297260671385e-07
sS'19039'
p403
F0.00545943550366779
sS'42098'
p404
F7.96879165107866e-06
sS'42099'
p405
F9.66318165292862e-09
sS'26056'
p406
F4.86879076092833e-38
sS'26057'
p407
F1.26440909966482e-35
sS'26054'
p408
F8.57982005329549e-52
sS'92238'
p409
F0.00707952394920562
sS'14029'
p410
F2.11372129856296e-19
sS'94240'
p411
F1.11246909285014e-05
sS'67366'
p412
F2.5714144743385e-13
sS'66160'
p413
F7.14234958400172e-10
sS'44103'
p414
F9.86968880843262e-08
sS'23051'
p415
F1.6027456907366e-42
sS'95241'
p416
F6.34970041051559e-07
sS'64160'
p417
F1.33528533172602e-07
sS'62154'
p418
F1.71658586184771e-07
sS'62153'
p419
F6.47536439949497e-10
sS'62152'
p420
F7.08638772732235e-07
sS'62151'
p421
F2.62857064983671e-07
sS'47111'
p422
F5.13436354470693e-10
sS'27059'
p423
F2.56740176397747e-31
sS'27058'
p424
F3.64522117621092e-39
sS'68167'
p425
F7.56011451296205e-12
sS'92237'
p426
F5.58986082871179e-09
sS'57139'
p427
F5.06526085167029e-06
sS'44096'
p428
F1.87407434680854e-25
sS'94241'
p429
F4.0723215094638e-06
sS'92236'
p430
F2.7246694992607e-05
sS'60147'
p431
F1.37782712370055e-08
sS'66161'
p432
F6.49128698836129e-10
sS'50116'
p433
F9.83154210752621e-09
sS'50113'
p434
F5.22416066116856e-20
sS'22047'
p435
F6.12030632953402e-27
sS'94242'
p436
F4.16834999701261e-07
sS'50117'
p437
F3.82372399773706e-08
sS'2003'
p438
F6.98686453249794e-17
sS'66158'
p439
F3.44395991796238e-16
sS'29065'
p440
F6.04391211964733e-15
sS'58139'
p441
F1.18174704471435e-12
sS'29063'
p442
F9.35571801330481e-29
sS'2004'
p443
F6.1456582081576e-13
sS'92241'
p444
F8.79921907383795e-21
sS'92232'
p445
F5.45124741936708e-13
sS'57138'
p446
F5.74679674217377e-11
sS'36078'
p447
F2.68229570621357e-26
sS'61148'
p448
F4.80656782236493e-10
ssg77
g78
sS'materialname'
p449
g14
sS'massdensity'
p450
Nsbag0
(g95
g2
Ntp451
Rp452
(dp453
g99
Nsg100
F-1.8
sg90
g101
sg69
g101
sg102
I00
sg103
g104
sg105
Nsg106
(dp454
S'5010'
p455
F4e-07
sS'5011'
p456
F1.6e-06
sS'6000'
p457
F0.999998
ssg77
g78
sg449
S'mod'
p458
sg450
F1.8
sbag0
(g95
g2
Ntp459
Rp460
(dp461
g99
Nsg100
F-8.86
sg90
g101
sg69
g101
sg102
I00
sg103
g104
sg105
Nsg106
(dp462
S'14030'
p463
F-0.00030872
sS'74186'
p464
F-0.0014215
sS'25055'
p465
F-0.008
sS'74184'
p466
F-0.001532
sS'74183'
p467
F-0.0007155
sS'74182'
p468
F-0.001325
sS'28058'
p469
F-0.4721201092
sS'42092'
p470
F-0.023744
sS'26058'
p471
F-0.000141
sS'42094'
p472
F-0.0148
sS'42095'
p473
F-0.025472
sS'42096'
p474
F-0.026688
sS'42097'
p475
F-0.01528
sS'42098'
p476
F-0.038608
sS'26056'
p477
F-0.045877
sS'26057'
p478
F-0.0010595
sS'26054'
p479
F-0.0029225
sS'42100'
p480
F-0.015408
sS'14028'
p481
F-0.00922297
sS'14029'
p482
F-0.00046832
sS'24050'
p483
F-0.0030415
sS'24052'
p484
F-0.0586523
sS'24053'
p485
F-0.0066507
sS'24054'
p486
F-0.0016555
sS'29065'
p487
F-0.00107905
sS'29063'
p488
F-0.00242095
sS'28064'
p489
F-0.0064191286
sS'28061'
p490
F-0.0079053205
sS'28060'
p491
F-0.1818598208
sS'28062'
p492
F-0.025205621
ssg77
g78
sg449
S'tank'
p493
sg450
F8.86
sbag0
(g95
g2
Ntp494
Rp495
(dp496
g99
F0.0608557326450355
sg100
F0.0608557326450355
sg90
g101
sg102
I01
sg103
g104
sg105
F1000000.0
sg106
(dp497
S'58138'
p498
F0.0
sS'48116'
p499
F0.0
sS'66164'
p500
F0.0
sS'48114'
p501
F0.0
sS'48113'
p502
F0.0
sS'48112'
p503
F0.0
sS'48111'
p504
F0.0
sS'21045'
p505
F0.0
sS'95243'
p506
F0.0
sS'63151'
p507
F0.0
sS'58136'
p508
F0.0
sS'60146'
p509
F0.0
sS'61348'
p510
F0.0
sS'62144'
p511
F0.0
sS'62147'
p512
F0.0
sS'8017'
p513
F0.0
sS'8016'
p514
F0.0
sS'40090'
p515
F0.0
sS'40091'
p516
F0.0
sS'40096'
p517
F0.0
sS'40094'
p518
F0.0
sS'40095'
p519
F0.0
sS'46102'
p520
F0.0
sS'96250'
p521
F0.0
sS'46106'
p522
F0.0
sS'46107'
p523
F0.0
sS'46104'
p524
F0.0
sS'46105'
p525
F0.0
sS'63154'
p526
F0.0
sS'63155'
p527
F0.0
sS'46108'
p528
F0.0
sS'48110'
p529
F0.0
sS'28058'
p530
F0.0
sS'28059'
p531
F0.0
sS'63152'
p532
F0.0
sS'58140'
p533
F0.0
sS'54131'
p534
F0.0
sS'64153'
p535
F0.0
sS'64152'
p536
F0.0
sS'64155'
p537
F0.0
sS'60148'
p538
F0.0
sS'64157'
p539
F0.0
sS'60144'
p540
F0.0
sS'57140'
p541
F0.0
sS'56136'
p542
F0.0
sS'58142'
p543
F0.0
sS'96245'
p544
F0.0
sS'34082'
p545
F0.0
sS'46110'
p546
F0.0
sS'42100'
p547
F0.0
sS'48106'
p548
F0.0
sS'48108'
p549
F0.0
sS'63153'
p550
F0.0
sS'42097'
p551
F0.0
sS'14028'
p552
F0.0
sS'41093'
p553
F0.0
sS'24050'
p554
F0.0
sS'24052'
p555
F0.0
sS'24053'
p556
F0.0
sS'24054'
p557
F0.0
sS'54126'
p558
F0.0
sS'54124'
p559
F0.0
sS'65159'
p560
F0.0
sS'58144'
p561
F0.0
sS'54129'
p562
F0.0
sS'54128'
p563
F0.0
sS'58141'
p564
F0.0
sS'56138'
p565
F0.0
sS'58143'
p566
F0.0
sS'41094'
p567
F0.0
sS'20043'
p568
F0.0
sS'20042'
p569
F0.0
sS'34080'
p570
F0.0
sS'20040'
p571
F2.48122210935417e-15
sS'41095'
p572
F0.0
sS'20046'
p573
F0.0
sS'11023'
p574
F0.0108187604173875
sS'20044'
p575
F0.0
sS'60145'
p576
F0.0
sS'20048'
p577
F0.0
sS'67165'
p578
F0.0
sS'35079'
p579
F0.0
sS'68164'
p580
F0.0
sS'92240'
p581
F0.0
sS'51123'
p582
F0.0
sS'59143'
p583
F0.0
sS'68166'
p584
F0.0
sS'90234'
p585
F7.10620743990684e-14
sS'5010'
p586
F0.0
sS'5011'
p587
F0.0
sS'65160'
p588
F0.0
sS'52126'
p589
F0.0
sS'52120'
p590
F0.0
sS'52123'
p591
F0.0
sS'52122'
p592
F0.0
sS'94237'
p593
F0.0
sS'94236'
p594
F0.0
sS'25055'
p595
F0.0
sS'52128'
p596
F0.0
sS'40092'
p597
F0.0
sS'95244'
p598
F0.0
sS'40093'
p599
F0.0
sS'54134'
p600
F0.0
sS'54135'
p601
F0.0
sS'54136'
p602
F0.0
sS'54130'
p603
F0.0
sS'9019'
p604
F0.0394187870161545
sS'54132'
p605
F0.0
sS'54133'
p606
F0.0
sS'32072'
p607
F0.0
sS'39089'
p608
F0.0
sS'93237'
p609
F0.0
sS'91233'
p610
F0.0
sS'93235'
p611
F0.0
sS'55137'
p612
F0.0
sS'55136'
p613
F0.0
sS'55135'
p614
F0.0
sS'55134'
p615
F0.0
sS'55133'
p616
F0.0
sS'64154'
p617
F0.0
sS'56132'
p618
F0.0
sS'49115'
p619
F0.0
sS'56130'
p620
F0.0
sS'13027'
p621
F0.0
sS'56137'
p622
F0.0
sS'31069'
p623
F0.0
sS'49113'
p624
F0.0
sS'90233'
p625
F0.0
sS'90232'
p626
F0.0
sS'45105'
p627
F0.0
sS'90230'
p628
F8.79460004300262e-17
sS'45103'
p629
F0.0
sS'39091'
p630
F0.0
sS'47310'
p631
F0.0
sS'52132'
p632
F0.0
sS'17035'
p633
F0.0
sS'52130'
p634
F0.0
sS'17037'
p635
F0.0
sS'92235'
p636
F0.00119931113275598
sS'94239'
p637
F0.0
sS'61149'
p638
F0.0
sS'93239'
p639
F0.0
sS'16036'
p640
F0.0
sS'56133'
p641
F0.0
sS'95342'
p642
F0.0
sS'63156'
p643
F0.0
sS'95344'
p644
F0.0
sS'53130'
p645
F0.0
sS'51125'
p646
F0.0
sS'91231'
p647
F8.78956402685832e-12
sS'91232'
p648
F0.0
sS'53129'
p649
F0.0
sS'96240'
p650
F0.0
sS'96241'
p651
F0.0
sS'96242'
p652
F0.0
sS'51121'
p653
F0.0
sS'68168'
p654
F0.0
sS'16033'
p655
F0.0
sS'15031'
p656
F0.0
sS'90228'
p657
F0.0
sS'90229'
p658
F0.0
sS'19041'
p659
F0.000295885854164657
sS'19040'
p660
F5.27219796034781e-07
sS'44104'
p661
F0.0
sS'44105'
p662
F0.0
sS'44106'
p663
F0.0
sS'50119'
p664
F0.0
sS'44100'
p665
F0.0
sS'44101'
p666
F0.0
sS'44102'
p667
F0.0
sS'16032'
p668
F0.0
sS'50112'
p669
F0.0
sS'31071'
p670
F0.0
sS'52125'
p671
F0.0
sS'38089'
p672
F0.0
sS'1003'
p673
F0.0
sS'1002'
p674
F0.0
sS'1001'
p675
F0.0
sS'50115'
p676
F0.0
sS'96247'
p677
F0.0
sS'14030'
p678
F0.0
sS'63157'
p679
F0.0
sS'52124'
p680
F0.0
sS'62150'
p681
F0.0
sS'59142'
p682
F0.0
sS'3007'
p683
F0.0
sS'3006'
p684
F0.0
sS'60150'
p685
F0.0
sS'93238'
p686
F0.0
sS'54123'
p687
F0.0
sS'32070'
p688
F0.0
sS'7014'
p689
F0.0
sS'7015'
p690
F0.0
sS'32074'
p691
F0.0
sS'32076'
p692
F0.0
sS'50126'
p693
F0.0
sS'50125'
p694
F0.0
sS'50124'
p695
F0.0
sS'50123'
p696
F0.0
sS'50122'
p697
F0.0
sS'33074'
p698
F0.0
sS'33075'
p699
F0.0
sS'68170'
p700
F0.0
sS'94238'
p701
F0.0
sS'37087'
p702
F0.0
sS'37086'
p703
F0.0
sS'37085'
p704
F0.0
sS'30064'
p705
F0.0
sS'38090'
p706
F0.0
sS'52329'
p707
F0.0
sS'52327'
p708
F0.0
sS'53135'
p709
F0.0
sS'32073'
p710
F0.0
sS'11022'
p711
F0.0
sS'66156'
p712
F0.0
sS'53131'
p713
F0.0
sS'18040'
p714
F3.0228934381026e-16
sS'96244'
p715
F0.0
sS'56140'
p716
F0.0
sS'34077'
p717
F0.0
sS'34076'
p718
F0.0
sS'34074'
p719
F0.0
sS'34079'
p720
F0.0
sS'34078'
p721
F0.0
sS'96246'
p722
F0.0
sS'12024'
p723
F0.0
sS'12025'
p724
F0.0
sS'12026'
p725
F0.0
sS'22046'
p726
F0.0
sS'60142'
p727
F0.0
sS'60143'
p728
F0.0
sS'68162'
p729
F0.0
sS'64158'
p730
F0.0
sS'94244'
p731
F0.0
sS'22049'
p732
F0.0
sS'22048'
p733
F0.0
sS'44098'
p734
F0.0
sS'44099'
p735
F0.0
sS'50120'
p736
F0.0
sS'95242'
p737
F0.0
sS'96243'
p738
F0.0
sS'56134'
p739
F0.0
sS'38086'
p740
F0.0
sS'38087'
p741
F0.0
sS'38084'
p742
F0.0
sS'18036'
p743
F0.0
sS'48315'
p744
F0.0
sS'53127'
p745
F0.0
sS'61147'
p746
F0.0
sS'51124'
p747
F0.0
sS'28064'
p748
F0.0
sS'51126'
p749
F0.0
sS'16034'
p750
F0.0
sS'28061'
p751
F0.0
sS'28060'
p752
F0.0
sS'38088'
p753
F0.0
sS'28062'
p754
F0.0
sS'64156'
p755
F0.0
sS'92233'
p756
F0.0
sS'43099'
p757
F0.0
sS'62148'
p758
F0.0
sS'92234'
p759
F6.62049936571279e-12
sS'96248'
p760
F0.0
sS'50114'
p761
F0.0
sS'56135'
p762
F0.0
sS'66162'
p763
F0.0
sS'96249'
p764
F0.0
sS'36080'
p765
F0.0
sS'47107'
p766
F0.0
sS'6012'
p767
F0.0
sS'39090'
p768
F0.0
sS'22050'
p769
F0.0
sS'92239'
p770
F0.0
sS'35081'
p771
F0.0
sS'93236'
p772
F0.0
sS'36082'
p773
F0.0
sS'36083'
p774
F0.0
sS'36084'
p775
F0.0
sS'18038'
p776
F0.0
sS'36086'
p777
F0.0
sS'42092'
p778
F0.0
sS'4009'
p779
F0.0
sS'62149'
p780
F0.0
sS'94243'
p781
F0.0
sS'90227'
p782
F4.27024827432809e-21
sS'47109'
p783
F0.0
sS'59141'
p784
F0.0
sS'66163'
p785
F0.0
sS'50118'
p786
F0.0
sS'36085'
p787
F0.0
sS'26058'
p788
F0.0
sS'61151'
p789
F0.0
sS'42094'
p790
F0.0
sS'42095'
p791
F0.0
sS'42096'
p792
F0.0
sS'19039'
p793
F0.00431022581435502
sS'42098'
p794
F0.0
sS'42099'
p795
F0.0
sS'26056'
p796
F0.0
sS'26057'
p797
F0.0
sS'26054'
p798
F0.0
sS'92238'
p799
F0.00481223515661017
sS'14029'
p800
F0.0
sS'94240'
p801
F0.0
sS'67366'
p802
F0.0
sS'66160'
p803
F0.0
sS'44103'
p804
F0.0
sS'23051'
p805
F0.0
sS'95241'
p806
F0.0
sS'64160'
p807
F0.0
sS'62154'
p808
F0.0
sS'62153'
p809
F0.0
sS'62152'
p810
F0.0
sS'62151'
p811
F0.0
sS'47111'
p812
F0.0
sS'27059'
p813
F0.0
sS'27058'
p814
F0.0
sS'68167'
p815
F0.0
sS'92237'
p816
F0.0
sS'57139'
p817
F0.0
sS'44096'
p818
F0.0
sS'94241'
p819
F0.0
sS'92236'
p820
F0.0
sS'60147'
p821
F0.0
sS'66161'
p822
F0.0
sS'50116'
p823
F0.0
sS'50113'
p824
F0.0
sS'22047'
p825
F0.0
sS'94242'
p826
F0.0
sS'50117'
p827
F0.0
sS'2003'
p828
F0.0
sS'66158'
p829
F0.0
sS'29065'
p830
F0.0
sS'58139'
p831
F0.0
sS'29063'
p832
F0.0
sS'2004'
p833
F1.83218852557967e-11
sS'92241'
p834
F0.0
sS'92232'
p835
F0.0
sS'57138'
p836
F0.0
sS'36078'
p837
F0.0
sS'61148'
p838
F0.0
ssg77
g78
sg449
g13
sg450
Nsbag0
(g95
g2
Ntp839
Rp840
(dp841
g99
F0.0483230575031429
sg100
F0.0483230575031429
sg90
g101
sg102
I01
sg103
g104
sg105
F1000000.0
sg106
(dp842
S'58138'
p843
F0.0
sS'48116'
p844
F0.0
sS'66164'
p845
F0.0
sS'48114'
p846
F0.0
sS'48113'
p847
F0.0
sS'48112'
p848
F0.0
sS'48111'
p849
F0.0
sS'21045'
p850
F0.0
sS'95243'
p851
F0.0
sS'63151'
p852
F0.0
sS'58136'
p853
F0.0
sS'60146'
p854
F0.0
sS'61348'
p855
F0.0
sS'62144'
p856
F0.0
sS'62147'
p857
F0.0
sS'8017'
p858
F0.0
sS'8016'
p859
F0.0
sS'40090'
p860
F0.0
sS'40091'
p861
F0.0
sS'40096'
p862
F0.0
sS'40094'
p863
F0.0
sS'40095'
p864
F0.0
sS'46102'
p865
F0.0
sS'96250'
p866
F0.0
sS'46106'
p867
F0.0
sS'46107'
p868
F0.0
sS'46104'
p869
F0.0
sS'46105'
p870
F0.0
sS'63154'
p871
F0.0
sS'63155'
p872
F0.0
sS'46108'
p873
F0.0
sS'48110'
p874
F0.0
sS'28058'
p875
F0.0
sS'28059'
p876
F0.0
sS'63152'
p877
F0.0
sS'58140'
p878
F0.0
sS'54131'
p879
F0.0
sS'64153'
p880
F0.0
sS'64152'
p881
F0.0
sS'64155'
p882
F0.0
sS'60148'
p883
F0.0
sS'64157'
p884
F0.0
sS'60144'
p885
F0.0
sS'57140'
p886
F0.0
sS'56136'
p887
F0.0
sS'58142'
p888
F0.0
sS'96245'
p889
F0.0
sS'34082'
p890
F0.0
sS'46110'
p891
F0.0
sS'42100'
p892
F0.0
sS'48106'
p893
F0.0
sS'48108'
p894
F0.0
sS'63153'
p895
F0.0
sS'42097'
p896
F0.0
sS'14028'
p897
F0.0
sS'41093'
p898
F0.0
sS'24050'
p899
F0.0
sS'24052'
p900
F0.0
sS'24053'
p901
F0.0
sS'24054'
p902
F0.0
sS'54126'
p903
F0.0
sS'54124'
p904
F0.0
sS'65159'
p905
F0.0
sS'58144'
p906
F0.0
sS'54129'
p907
F0.0
sS'54128'
p908
F0.0
sS'58141'
p909
F0.0
sS'56138'
p910
F0.0
sS'58143'
p911
F0.0
sS'41094'
p912
F0.0
sS'20043'
p913
F0.0
sS'20042'
p914
F0.0
sS'34080'
p915
F0.0
sS'20040'
p916
F0.0
sS'41095'
p917
F0.0
sS'20046'
p918
F0.0
sS'11023'
p919
F0.0
sS'20044'
p920
F0.0
sS'60145'
p921
F0.0
sS'20048'
p922
F0.0
sS'67165'
p923
F0.0
sS'35079'
p924
F0.0
sS'68164'
p925
F0.0
sS'92240'
p926
F0.0
sS'51123'
p927
F0.0
sS'59143'
p928
F0.0
sS'68166'
p929
F0.0
sS'90234'
p930
F7.13584558085627e-13
sS'5010'
p931
F0.0
sS'5011'
p932
F0.0
sS'65160'
p933
F0.0
sS'52126'
p934
F0.0
sS'52120'
p935
F0.0
sS'52123'
p936
F0.0
sS'52122'
p937
F0.0
sS'94237'
p938
F0.0
sS'94236'
p939
F0.0
sS'25055'
p940
F0.0
sS'52128'
p941
F0.0
sS'40092'
p942
F0.0
sS'95244'
p943
F0.0
sS'40093'
p944
F0.0
sS'54134'
p945
F0.0
sS'54135'
p946
F0.0
sS'54136'
p947
F0.0
sS'54130'
p948
F0.0
sS'9019'
p949
F0.0
sS'54132'
p950
F0.0
sS'54133'
p951
F0.0
sS'32072'
p952
F0.0
sS'39089'
p953
F0.0
sS'93237'
p954
F0.0
sS'91233'
p955
F0.0
sS'93235'
p956
F0.0
sS'55137'
p957
F0.0
sS'55136'
p958
F0.0
sS'55135'
p959
F0.0
sS'55134'
p960
F0.0
sS'55133'
p961
F0.0
sS'64154'
p962
F0.0
sS'56132'
p963
F0.0
sS'49115'
p964
F0.0
sS'56130'
p965
F0.0
sS'13027'
p966
F0.0
sS'56137'
p967
F0.0
sS'31069'
p968
F0.0
sS'49113'
p969
F0.0
sS'90233'
p970
F0.0
sS'90232'
p971
F0.0
sS'45105'
p972
F0.0
sS'90230'
p973
F8.83128002922876e-16
sS'45103'
p974
F0.0
sS'39091'
p975
F0.0
sS'47310'
p976
F0.0
sS'52132'
p977
F0.0
sS'17035'
p978
F0.0
sS'52130'
p979
F0.0
sS'17037'
p980
F0.0
sS'92235'
p981
F0.0
sS'94239'
p982
F0.0
sS'61149'
p983
F0.0
sS'93239'
p984
F0.0
sS'16036'
p985
F0.0
sS'56133'
p986
F0.0
sS'95342'
p987
F0.0
sS'63156'
p988
F0.0
sS'95344'
p989
F0.0
sS'53130'
p990
F0.0
sS'51125'
p991
F0.0
sS'91231'
p992
F0.0
sS'91232'
p993
F0.0
sS'53129'
p994
F0.0
sS'96240'
p995
F0.0
sS'96241'
p996
F0.0
sS'96242'
p997
F0.0
sS'51121'
p998
F0.0
sS'68168'
p999
F0.0
sS'16033'
p1000
F0.0
sS'15031'
p1001
F0.0
sS'90228'
p1002
F0.0
sS'90229'
p1003
F0.0
sS'19041'
p1004
F0.0
sS'19040'
p1005
F0.0
sS'44104'
p1006
F0.0
sS'44105'
p1007
F0.0
sS'44106'
p1008
F0.0
sS'50119'
p1009
F0.0
sS'44100'
p1010
F0.0
sS'44101'
p1011
F0.0
sS'44102'
p1012
F0.0
sS'16032'
p1013
F0.0
sS'50112'
p1014
F0.0
sS'31071'
p1015
F0.0
sS'52125'
p1016
F0.0
sS'38089'
p1017
F0.0
sS'1003'
p1018
F0.0
sS'1002'
p1019
F0.0
sS'1001'
p1020
F0.0
sS'50115'
p1021
F0.0
sS'96247'
p1022
F0.0
sS'14030'
p1023
F0.0
sS'63157'
p1024
F0.0
sS'52124'
p1025
F0.0
sS'62150'
p1026
F0.0
sS'59142'
p1027
F0.0
sS'3007'
p1028
F0.0
sS'3006'
p1029
F0.0
sS'60150'
p1030
F0.0
sS'93238'
p1031
F0.0
sS'54123'
p1032
F0.0
sS'32070'
p1033
F0.0
sS'7014'
p1034
F0.0
sS'7015'
p1035
F0.0
sS'32074'
p1036
F0.0
sS'32076'
p1037
F0.0
sS'50126'
p1038
F0.0
sS'50125'
p1039
F0.0
sS'50124'
p1040
F0.0
sS'50123'
p1041
F0.0
sS'50122'
p1042
F0.0
sS'33074'
p1043
F0.0
sS'33075'
p1044
F0.0
sS'68170'
p1045
F0.0
sS'94238'
p1046
F0.0
sS'37087'
p1047
F0.0
sS'37086'
p1048
F0.0
sS'37085'
p1049
F0.0
sS'30064'
p1050
F0.0
sS'38090'
p1051
F0.0
sS'52329'
p1052
F0.0
sS'52327'
p1053
F0.0
sS'53135'
p1054
F0.0
sS'32073'
p1055
F0.0
sS'11022'
p1056
F0.0
sS'66156'
p1057
F0.0
sS'53131'
p1058
F0.0
sS'18040'
p1059
F0.0
sS'96244'
p1060
F0.0
sS'56140'
p1061
F0.0
sS'34077'
p1062
F0.0
sS'34076'
p1063
F0.0
sS'34074'
p1064
F0.0
sS'34079'
p1065
F0.0
sS'34078'
p1066
F0.0
sS'96246'
p1067
F0.0
sS'12024'
p1068
F0.0
sS'12025'
p1069
F0.0
sS'12026'
p1070
F0.0
sS'22046'
p1071
F0.0
sS'60142'
p1072
F0.0
sS'60143'
p1073
F0.0
sS'68162'
p1074
F0.0
sS'64158'
p1075
F0.0
sS'94244'
p1076
F0.0
sS'22049'
p1077
F0.0
sS'22048'
p1078
F0.0
sS'44098'
p1079
F0.0
sS'44099'
p1080
F0.0
sS'50120'
p1081
F0.0
sS'95242'
p1082
F0.0
sS'96243'
p1083
F0.0
sS'56134'
p1084
F0.0
sS'38086'
p1085
F0.0
sS'38087'
p1086
F0.0
sS'38084'
p1087
F0.0
sS'18036'
p1088
F0.0
sS'48315'
p1089
F0.0
sS'53127'
p1090
F0.0
sS'61147'
p1091
F0.0
sS'51124'
p1092
F0.0
sS'28064'
p1093
F0.0
sS'51126'
p1094
F0.0
sS'16034'
p1095
F0.0
sS'28061'
p1096
F0.0
sS'28060'
p1097
F0.0
sS'38088'
p1098
F0.0
sS'28062'
p1099
F0.0
sS'64156'
p1100
F0.0
sS'92233'
p1101
F0.0
sS'43099'
p1102
F0.0
sS'62148'
p1103
F0.0
sS'92234'
p1104
F6.64811174439987e-11
sS'96248'
p1105
F0.0
sS'50114'
p1106
F0.0
sS'56135'
p1107
F0.0
sS'66162'
p1108
F0.0
sS'96249'
p1109
F0.0
sS'36080'
p1110
F0.0
sS'47107'
p1111
F0.0
sS'6012'
p1112
F0.0
sS'39090'
p1113
F0.0
sS'22050'
p1114
F0.0
sS'92239'
p1115
F0.0
sS'35081'
p1116
F0.0
sS'93236'
p1117
F0.0
sS'36082'
p1118
F0.0
sS'36083'
p1119
F0.0
sS'36084'
p1120
F0.0
sS'18038'
p1121
F0.0
sS'36086'
p1122
F0.0
sS'42092'
p1123
F0.0
sS'4009'
p1124
F0.0
sS'62149'
p1125
F0.0
sS'94243'
p1126
F0.0
sS'90227'
p1127
F0.0
sS'47109'
p1128
F0.0
sS'59141'
p1129
F0.0
sS'66163'
p1130
F0.0
sS'50118'
p1131
F0.0
sS'36085'
p1132
F0.0
sS'26058'
p1133
F0.0
sS'61151'
p1134
F0.0
sS'42094'
p1135
F0.0
sS'42095'
p1136
F0.0
sS'42096'
p1137
F0.0
sS'19039'
p1138
F0.0
sS'42098'
p1139
F0.0
sS'42099'
p1140
F0.0
sS'26056'
p1141
F0.0
sS'26057'
p1142
F0.0
sS'26054'
p1143
F0.0
sS'92238'
p1144
F0.0483230573646802
sS'14029'
p1145
F0.0
sS'94240'
p1146
F0.0
sS'67366'
p1147
F0.0
sS'66160'
p1148
F0.0
sS'44103'
p1149
F0.0
sS'23051'
p1150
F0.0
sS'95241'
p1151
F0.0
sS'64160'
p1152
F0.0
sS'62154'
p1153
F0.0
sS'62153'
p1154
F0.0
sS'62152'
p1155
F0.0
sS'62151'
p1156
F0.0
sS'47111'
p1157
F0.0
sS'27059'
p1158
F0.0
sS'27058'
p1159
F0.0
sS'68167'
p1160
F0.0
sS'92237'
p1161
F0.0
sS'57139'
p1162
F0.0
sS'44096'
p1163
F0.0
sS'94241'
p1164
F0.0
sS'92236'
p1165
F0.0
sS'60147'
p1166
F0.0
sS'66161'
p1167
F0.0
sS'50116'
p1168
F0.0
sS'50113'
p1169
F0.0
sS'22047'
p1170
F0.0
sS'94242'
p1171
F0.0
sS'50117'
p1172
F0.0
sS'2003'
p1173
F0.0
sS'66158'
p1174
F0.0
sS'29065'
p1175
F0.0
sS'58139'
p1176
F0.0
sS'29063'
p1177
F0.0
sS'2004'
p1178
F7.12588749463873e-11
sS'92241'
p1179
F0.0
sS'92232'
p1180
F0.0
sS'57138'
p1181
F0.0
sS'36078'
p1182
F0.0
sS'61148'
p1183
F0.0
ssg77
g78
sg449
g28
sg450
Nsbag0
(g95
g2
Ntp1184
Rp1185
(dp1186
g99
F0.00187640564160962
sg100
F0.00187640564160962
sg90
g101
sg102
I01
sg103
g104
sg105
F1000000.0
sg106
(dp1187
S'58138'
p1188
F0.0
sS'48116'
p1189
F0.0
sS'66164'
p1190
F0.0
sS'48114'
p1191
F0.0
sS'48113'
p1192
F0.0
sS'48112'
p1193
F0.0
sS'48111'
p1194
F0.0
sS'21045'
p1195
F8.42889641019768e-60
sS'95243'
p1196
F0.0
sS'63151'
p1197
F0.0
sS'58136'
p1198
F0.0
sS'60146'
p1199
F5.51602934639655e-12
sS'61348'
p1200
F0.0
sS'62144'
p1201
F0.0
sS'62147'
p1202
F1.10277402318666e-13
sS'8017'
p1203
F0.0
sS'8016'
p1204
F0.0
sS'40090'
p1205
F6.09416757150532e-06
sS'40091'
p1206
F1.39397690068181e-05
sS'40096'
p1207
F1.65654090250816e-09
sS'40094'
p1208
F1.65148717754898e-08
sS'40095'
p1209
F3.4013561228054e-11
sS'46102'
p1210
F0.0
sS'96250'
p1211
F0.0
sS'46106'
p1212
F0.0
sS'46107'
p1213
F0.0
sS'46104'
p1214
F0.0
sS'46105'
p1215
F0.0
sS'63154'
p1216
F0.0
sS'63155'
p1217
F0.0
sS'46108'
p1218
F0.0
sS'48110'
p1219
F0.0
sS'28058'
p1220
F0.0
sS'28059'
p1221
F0.0
sS'63152'
p1222
F0.0
sS'58140'
p1223
F2.60252994782653e-05
sS'54131'
p1224
F8.53231553365189e-05
sS'64153'
p1225
F0.0
sS'64152'
p1226
F0.0
sS'64155'
p1227
F0.0
sS'60148'
p1228
F0.0
sS'64157'
p1229
F0.0
sS'60144'
p1230
F2.85483369063521e-09
sS'57140'
p1231
F1.6779197320278e-08
sS'56136'
p1232
F0.0
sS'58142'
p1233
F4.26465982523066e-07
sS'96245'
p1234
F0.0
sS'34082'
p1235
F0.0
sS'46110'
p1236
F0.0
sS'42100'
p1237
F2.72285238345103e-14
sS'48106'
p1238
F0.0
sS'48108'
p1239
F0.0
sS'63153'
p1240
F0.0
sS'42097'
p1241
F1.92618063176028e-11
sS'14028'
p1242
F0.0
sS'41093'
p1243
F2.30965964373433e-14
sS'24050'
p1244
F0.0
sS'24052'
p1245
F0.0
sS'24053'
p1246
F0.0
sS'24054'
p1247
F0.0
sS'54126'
p1248
F4.29523977132095e-13
sS'54124'
p1249
F6.75322913676618e-29
sS'65159'
p1250
F0.0
sS'58144'
p1251
F3.61745003184202e-10
sS'54129'
p1252
F4.8100739823448e-12
sS'54128'
p1253
F8.74078201756608e-08
sS'58141'
p1254
F1.92700017755255e-08
sS'56138'
p1255
F0.000163952065207691
sS'58143'
p1256
F1.40930887050491e-11
sS'41094'
p1257
F0.0
sS'20043'
p1258
F3.70456061721008e-29
sS'20042'
p1259
F2.4947970408387e-25
sS'34080'
p1260
F0.0
sS'20040'
p1261
F0.0
sS'41095'
p1262
F1.84887488880733e-11
sS'20046'
p1263
F0.0
sS'11023'
p1264
F5.43535961199759e-07
sS'20044'
p1265
F6.8429033844057e-60
sS'60145'
p1266
F9.48837251908778e-11
sS'20048'
p1267
F0.0
sS'67165'
p1268
F0.0
sS'35079'
p1269
F9.56842424180564e-17
sS'68164'
p1270
F0.0
sS'92240'
p1271
F0.0
sS'51123'
p1272
F0.0
sS'59143'
p1273
F1.38760245806354e-10
sS'68166'
p1274
F0.0
sS'90234'
p1275
F0.0
sS'5010'
p1276
F0.0
sS'5011'
p1277
F0.0
sS'65160'
p1278
F0.0
sS'52126'
p1279
F0.0
sS'52120'
p1280
F0.0
sS'52123'
p1281
F6.53081199520514e-42
sS'52122'
p1282
F2.05038822204973e-47
sS'94237'
p1283
F0.0
sS'94236'
p1284
F0.0
sS'25055'
p1285
F0.0
sS'52128'
p1286
F0.0
sS'40092'
p1287
F1.9598433707588e-06
sS'95244'
p1288
F0.0
sS'40093'
p1289
F4.00358714955741e-07
sS'54134'
p1290
F0.000220543214211127
sS'54135'
p1291
F2.98727322279482e-08
sS'54136'
p1292
F0.000186221550698474
sS'54130'
p1293
F3.53604142275797e-07
sS'9019'
p1294
F0.0
sS'54132'
p1295
F0.000128952997488003
sS'54133'
p1296
F3.51491426507112e-07
sS'32072'
p1297
F0.0
sS'39089'
p1298
F8.81037290000198e-05
sS'93237'
p1299
F0.0
sS'91233'
p1300
F0.0
sS'93235'
p1301
F0.0
sS'55137'
p1302
F0.000135453251251005
sS'55136'
p1303
F0.0
sS'55135'
p1304
F0.000194005288947057
sS'55134'
p1305
F0.0
sS'55133'
p1306
F0.000157152015882222
sS'64154'
p1307
F0.0
sS'56132'
p1308
F0.0
sS'49115'
p1309
F0.0
sS'56130'
p1310
F0.0
sS'13027'
p1311
F0.0
sS'56137'
p1312
F1.57105136665034e-05
sS'31069'
p1313
F0.0
sS'49113'
p1314
F0.0
sS'90233'
p1315
F0.0
sS'90232'
p1316
F0.0
sS'45105'
p1317
F0.0
sS'90230'
p1318
F0.0
sS'45103'
p1319
F0.0
sS'39091'
p1320
F3.11047032855396e-07
sS'47310'
p1321
F0.0
sS'52132'
p1322
F0.0
sS'17035'
p1323
F3.02043454254749e-31
sS'52130'
p1324
F0.0
sS'17037'
p1325
F1.27546666405753e-18
sS'92235'
p1326
F0.0
sS'94239'
p1327
F0.0
sS'61149'
p1328
F0.0
sS'93239'
p1329
F0.0
sS'16036'
p1330
F0.0
sS'56133'
p1331
F0.0
sS'95342'
p1332
F0.0
sS'63156'
p1333
F0.0
sS'95344'
p1334
F0.0
sS'53130'
p1335
F0.0
sS'51125'
p1336
F0.0
sS'91231'
p1337
F0.0
sS'91232'
p1338
F0.0
sS'53129'
p1339
F0.0
sS'96240'
p1340
F0.0
sS'96241'
p1341
F0.0
sS'96242'
p1342
F0.0
sS'51121'
p1343
F1.03565197025358e-61
sS'68168'
p1344
F0.0
sS'16033'
p1345
F0.0
sS'15031'
p1346
F0.0
sS'90228'
p1347
F7.01119521494922e-24
sS'90229'
p1348
F1.20542240544727e-20
sS'19041'
p1349
F4.2105021868257e-08
sS'19040'
p1350
F0.0
sS'44104'
p1351
F0.0
sS'44105'
p1352
F0.0
sS'44106'
p1353
F0.0
sS'50119'
p1354
F0.0
sS'44100'
p1355
F1.2372487333909e-32
sS'44101'
p1356
F0.0
sS'44102'
p1357
F0.0
sS'16032'
p1358
F0.0
sS'50112'
p1359
F0.0
sS'31071'
p1360
F0.0
sS'52125'
p1361
F1.7152758101158e-18
sS'38089'
p1362
F1.70078876312609e-06
sS'1003'
p1363
F0.0
sS'1002'
p1364
F0.0
sS'1001'
p1365
F0.0
sS'50115'
p1366
F0.0
sS'96247'
p1367
F0.0
sS'14030'
p1368
F0.0
sS'63157'
p1369
F0.0
sS'52124'
p1370
F0.0
sS'62150'
p1371
F0.0
sS'59142'
p1372
F0.0
sS'3007'
p1373
F0.0
sS'3006'
p1374
F1.32243937872678e-22
sS'60150'
p1375
F0.0
sS'93238'
p1376
F0.0
sS'54123'
p1377
F1.10504359685523e-45
sS'32070'
p1378
F0.0
sS'7014'
p1379
F0.0
sS'7015'
p1380
F0.0
sS'32074'
p1381
F0.0
sS'32076'
p1382
F0.0
sS'50126'
p1383
F0.0
sS'50125'
p1384
F0.0
sS'50124'
p1385
F0.0
sS'50123'
p1386
F0.0
sS'50122'
p1387
F0.0
sS'33074'
p1388
F0.0
sS'33075'
p1389
F0.0
sS'68170'
p1390
F0.0
sS'94238'
p1391
F0.0
sS'37087'
p1392
F6.14677017768415e-05
sS'37086'
p1393
F0.0
sS'37085'
p1394
F2.67195916953042e-05
sS'30064'
p1395
F0.0
sS'38090'
p1396
F4.85325286292729e-05
sS'52329'
p1397
F0.0
sS'52327'
p1398
F0.0
sS'53135'
p1399
F0.0
sS'32073'
p1400
F0.0
sS'11022'
p1401
F0.0
sS'66156'
p1402
F0.0
sS'53131'
p1403
F0.0
sS'18040'
p1404
F1.77524288208301e-07
sS'96244'
p1405
F0.0
sS'56140'
p1406
F1.27503788856727e-07
sS'34077'
p1407
F2.5642172693034e-23
sS'34076'
p1408
F0.0
sS'34074'
p1409
F0.0
sS'34079'
p1410
F0.0
sS'34078'
p1411
F0.0
sS'96246'
p1412
F0.0
sS'12024'
p1413
F0.0
sS'12025'
p1414
F0.0
sS'12026'
p1415
F0.0
sS'22046'
p1416
F0.0
sS'60142'
p1417
F0.0
sS'60143'
p1418
F2.62289747864812e-08
sS'68162'
p1419
F0.0
sS'64158'
p1420
F0.0
sS'94244'
p1421
F0.0
sS'22049'
p1422
F0.0
sS'22048'
p1423
F0.0
sS'44098'
p1424
F0.0
sS'44099'
p1425
F1.79354064442794e-18
sS'50120'
p1426
F0.0
sS'95242'
p1427
F0.0
sS'96243'
p1428
F0.0
sS'56134'
p1429
F0.0
sS'38086'
p1430
F0.0
sS'38087'
p1431
F4.41556611322509e-15
sS'38084'
p1432
F0.0
sS'18036'
p1433
F2.90384123978055e-13
sS'48315'
p1434
F0.0
sS'53127'
p1435
F4.15852129293329e-16
sS'61147'
p1436
F6.00409402740339e-14
sS'51124'
p1437
F0.0
sS'28064'
p1438
F0.0
sS'51126'
p1439
F0.0
sS'16034'
p1440
F0.0
sS'28061'
p1441
F0.0
sS'28060'
p1442
F0.0
sS'38088'
p1443
F8.14985167616911e-05
sS'28062'
p1444
F0.0
sS'64156'
p1445
F0.0
sS'92233'
p1446
F0.0
sS'43099'
p1447
F3.71465514757829e-14
sS'62148'
p1448
F0.0
sS'92234'
p1449
F0.0
sS'96248'
p1450
F0.0
sS'50114'
p1451
F0.0
sS'56135'
p1452
F2.81704787282807e-10
sS'66162'
p1453
F0.0
sS'96249'
p1454
F0.0
sS'36080'
p1455
F3.67846073389701e-11
sS'47107'
p1456
F0.0
sS'6012'
p1457
F0.0
sS'39090'
p1458
F1.22968751163208e-08
sS'22050'
p1459
F0.0
sS'92239'
p1460
F0.0
sS'35081'
p1461
F1.34227854226418e-18
sS'93236'
p1462
F0.0
sS'36082'
p1463
F8.21396363536897e-08
sS'36083'
p1464
F1.33703904960494e-05
sS'36084'
p1465
F2.46936643428404e-05
sS'18038'
p1466
F2.42082525353204e-07
sS'36086'
p1467
F4.52410646852988e-05
sS'42092'
p1468
F0.0
sS'4009'
p1469
F0.0
sS'62149'
p1470
F0.0
sS'94243'
p1471
F0.0
sS'90227'
p1472
F4.76361194144719e-29
sS'47109'
p1473
F0.0
sS'59141'
p1474
F1.52374930727913e-06
sS'66163'
p1475
F0.0
sS'50118'
p1476
F0.0
sS'36085'
p1477
F6.33792543438177e-06
sS'26058'
p1478
F0.0
sS'61151'
p1479
F0.0
sS'42094'
p1480
F0.0
sS'42095'
p1481
F1.31298285432516e-09
sS'42096'
p1482
F0.0
sS'19039'
p1483
F1.03961425686876e-09
sS'42098'
p1484
F3.50991089492263e-11
sS'42099'
p1485
F4.2389516463011e-17
sS'26056'
p1486
F0.0
sS'26057'
p1487
F0.0
sS'26054'
p1488
F0.0
sS'92238'
p1489
F0.0
sS'14029'
p1490
F0.0
sS'94240'
p1491
F0.0
sS'67366'
p1492
F0.0
sS'66160'
p1493
F0.0
sS'44103'
p1494
F0.0
sS'23051'
p1495
F0.0
sS'95241'
p1496
F0.0
sS'64160'
p1497
F0.0
sS'62154'
p1498
F0.0
sS'62153'
p1499
F0.0
sS'62152'
p1500
F0.0
sS'62151'
p1501
F0.0
sS'47111'
p1502
F0.0
sS'27059'
p1503
F0.0
sS'27058'
p1504
F0.0
sS'68167'
p1505
F0.0
sS'92237'
p1506
F0.0
sS'57139'
p1507
F6.94038576776392e-05
sS'44096'
p1508
F0.0
sS'94241'
p1509
F0.0
sS'92236'
p1510
F0.0
sS'60147'
p1511
F7.23086303909423e-16
sS'66161'
p1512
F0.0
sS'50116'
p1513
F0.0
sS'50113'
p1514
F0.0
sS'22047'
p1515
F0.0
sS'94242'
p1516
F0.0
sS'50117'
p1517
F0.0
sS'2003'
p1518
F4.52716802963322e-09
sS'66158'
p1519
F0.0
sS'29065'
p1520
F0.0
sS'58139'
p1521
F0.0
sS'29063'
p1522
F0.0
sS'2004'
p1523
F6.90641419217365e-05
sS'92241'
p1524
F0.0
sS'92232'
p1525
F0.0
sS'57138'
p1526
F0.0
sS'36078'
p1527
F2.47324489173382e-18
sS'61148'
p1528
F0.0
ssg77
g78
sg449
g38
sg450
Nsbag0
(g95
g2
Ntp1529
Rp1530
(dp1531
g99
F0.374053377940268
sg100
F0.374053377940268
sg90
g101
sg102
I01
sg103
g104
sg105
F1000000.0
sg106
(dp1532
S'58138'
p1533
F2.89436366147201e-14
sS'48116'
p1534
F8.36151575360235e-08
sS'66164'
p1535
F3.55401278295509e-10
sS'48114'
p1536
F1.84337353338663e-07
sS'48113'
p1537
F9.54423084954437e-09
sS'48112'
p1538
F1.12410303198868e-07
sS'48111'
p1539
F2.36228988009145e-07
sS'21045'
p1540
F7.58015686689128e-19
sS'95243'
p1541
F5.34087097687999e-08
sS'63151'
p1542
F2.39034049518738e-08
sS'58136'
p1543
F1.15587396841072e-24
sS'60146'
p1544
F8.51374262320914e-06
sS'61348'
p1545
F1.67197714944193e-10
sS'62144'
p1546
F3.55070574693336e-21
sS'62147'
p1547
F4.37202656879235e-06
sS'8017'
p1548
F1.99844930920122e-09
sS'8016'
p1549
F4.03531223019934e-06
sS'40090'
p1550
F1.20363850727178e-06
sS'40091'
p1551
F1.16173281329986e-05
sS'40096'
p1552
F1.69927928946618e-05
sS'40094'
p1553
F1.68181036867594e-05
sS'40095'
p1554
F2.1882596187e-08
sS'46102'
p1555
F1.97569895937734e-14
sS'96250'
p1556
F1.63326626411648e-24
sS'46106'
p1557
F3.50164281245313e-06
sS'46107'
p1558
F2.26204471770095e-06
sS'46104'
p1559
F1.30202259916185e-06
sS'46105'
p1560
F5.52276625172857e-06
sS'63154'
p1561
F8.25727803414736e-08
sS'63155'
p1562
F3.4190153678214e-08
sS'46108'
p1563
F1.40548491718807e-06
sS'48110'
p1564
F7.40417121857759e-08
sS'28058'
p1565
F3.8906945873458e-44
sS'28059'
p1566
F3.24823069319338e-37
sS'63152'
p1567
F4.73439617928044e-09
sS'58140'
p1568
F1.43612064085977e-05
sS'54131'
p1569
F6.32630625714281e-08
sS'64153'
p1570
F1.18476514289297e-11
sS'64152'
p1571
F2.41927705602045e-09
sS'64155'
p1572
F6.50899788527716e-08
sS'60148'
p1573
F4.74989268316482e-06
sS'64157'
p1574
F1.51362063914088e-08
sS'60144'
p1575
F1.48595580840971e-05
sS'57140'
p1576
F1.08365488941116e-10
sS'56136'
p1577
F6.38231791720897e-08
sS'58142'
p1578
F1.5500744663596e-05
sS'96245'
p1579
F1.82880843113547e-10
sS'34082'
p1580
F8.53282332439536e-07
sS'46110'
p1581
F4.5487669602359e-07
sS'42100'
p1582
F1.79556462844065e-05
sS'48106'
p1583
F2.10905873158243e-19
sS'48108'
p1584
F6.35660775159427e-13
sS'63153'
p1585
F8.36598809838689e-07
sS'42097'
p1586
F1.03814485986961e-05
sS'14028'
p1587
F1.2967303693916e-22
sS'41093'
p1588
F1.34663870475257e-12
sS'24050'
p1589
F1.13142540937698e-61
sS'24052'
p1590
F1.25359927230673e-44
sS'24053'
p1591
F1.19372455118347e-44
sS'24054'
p1592
F8.51405659311995e-40
sS'54126'
p1593
F5.45175094673228e-17
sS'54124'
p1594
F2.26709507596703e-36
sS'65159'
p1595
F1.7768636333672e-08
sS'58144'
p1596
F3.71935142781937e-07
sS'54129'
p1597
F2.79710505280078e-13
sS'54128'
p1598
F1.28802177667471e-13
sS'58141'
p1599
F5.0592810242602e-09
sS'56138'
p1600
F2.18709534473605e-06
sS'58143'
p1601
F9.14637327181469e-12
sS'41094'
p1602
F1.03783148446145e-11
sS'20043'
p1603
F2.46870520527379e-10
sS'20042'
p1604
F1.39582070159434e-06
sS'34080'
p1605
F3.39812615691653e-07
sS'20040'
p1606
F6.74149666211118e-14
sS'41095'
p1607
F1.85159575211669e-08
sS'20046'
p1608
F3.65113836080837e-37
sS'11023'
p1609
F0.0664678262971392
sS'20044'
p1610
F4.60540896978431e-13
sS'60145'
p1611
F9.65573942888554e-06
sS'20048'
p1612
F1.9077778394358e-47
sS'67165'
p1613
F1.92510671628441e-10
sS'35079'
p1614
F6.85048544665553e-11
sS'68164'
p1615
F7.63834315065699e-15
sS'92240'
p1616
F1.56459744358435e-17
sS'51123'
p1617
F9.28328373196357e-08
sS'59143'
p1618
F9.71361137255323e-10
sS'68166'
p1619
F3.1891200583797e-11
sS'90234'
p1620
F5.16882840766832e-13
sS'5010'
p1621
F5.67840931202314e-24
sS'5011'
p1622
F4.08050788566954e-15
sS'65160'
p1623
F6.11090005700134e-12
sS'52126'
p1624
F9.65833066908802e-09
sS'52120'
p1625
F1.10741417814809e-17
sS'52123'
p1626
F3.45286438608972e-12
sS'52122'
p1627
F6.01110707033051e-10
sS'94237'
p1628
F5.0017943805314e-15
sS'94236'
p1629
F6.30835239756882e-15
sS'25055'
p1630
F2.15761195602367e-37
sS'52128'
p1631
F1.13064275456602e-06
sS'40092'
p1632
F1.41312944551391e-05
sS'95244'
p1633
F2.25537639899122e-16
sS'40093'
p1634
F1.47272376550966e-05
sS'54134'
p1635
F1.51866744855501e-09
sS'54135'
p1636
F5.9086073764417e-13
sS'54136'
p1637
F2.01076195243976e-11
sS'54130'
p1638
F1.40380853667522e-11
sS'9019'
p1639
F0.242184610180958
sS'54132'
p1640
F4.08455475206527e-08
sS'54133'
p1641
F2.01171411109456e-11
sS'32072'
p1642
F1.24127459881376e-10
sS'39089'
p1643
F2.30328264725499e-06
sS'93237'
p1644
F1.89861233733655e-06
sS'91233'
p1645
F6.54352908066809e-14
sS'93235'
p1646
F8.25623673075538e-16
sS'55137'
p1647
F2.34556491747577e-06
sS'55136'
p1648
F2.49612830928711e-12
sS'55135'
p1649
F3.04315527998105e-08
sS'55134'
p1650
F8.87984097232426e-11
sS'55133'
p1651
F1.3513463378332e-08
sS'64154'
p1652
F6.22033393486143e-08
sS'56132'
p1653
F4.67382454526812e-15
sS'49115'
p1654
F3.25163627734592e-08
sS'56130'
p1655
F2.60846590779341e-24
sS'13027'
p1656
F2.86487354663866e-20
sS'56137'
p1657
F3.67658777466797e-07
sS'31069'
p1658
F2.99234156620798e-11
sS'49113'
p1659
F5.53530124464032e-13
sS'90233'
p1660
F2.63355888780093e-23
sS'90232'
p1661
F1.11605584224225e-11
sS'45105'
p1662
F5.55338407888912e-12
sS'90230'
p1663
F3.76681688753266e-13
sS'45103'
p1664
F9.79496355676639e-06
sS'39091'
p1665
F1.19502232276459e-08
sS'47310'
p1666
F1.79900916576046e-10
sS'52132'
p1667
F4.171166988726e-11
sS'17035'
p1668
F7.05453855887956e-10
sS'52130'
p1669
F5.37285848006792e-06
sS'17037'
p1670
F1.00406498249531e-08
sS'92235'
p1671
F0.00147993164977256
sS'94239'
p1672
F0.000150827291933837
sS'61149'
p1673
F5.32449516522006e-12
sS'93239'
p1674
F3.86749077369589e-10
sS'16036'
p1675
F1.78724542394938e-15
sS'56133'
p1676
F5.89175864215417e-15
sS'95342'
p1677
F7.05720531522054e-09
sS'63156'
p1678
F3.10135747997457e-11
sS'95344'
p1679
F6.22401073308757e-18
sS'53130'
p1680
F4.83731236098065e-15
sS'51125'
p1681
F4.42007200307753e-08
sS'91231'
p1682
F1.05981315221357e-11
sS'91232'
p1683
F1.21782240365396e-18
sS'53129'
p1684
F1.9813216757115e-06
sS'96240'
p1685
F9.03321366149967e-21
sS'96241'
p1686
F6.76904455024526e-18
sS'96242'
p1687
F5.16779713855586e-09
sS'51121'
p1688
F5.8270550569535e-08
sS'68168'
p1689
F2.4359453200443e-11
sS'16033'
p1690
F5.39256236629707e-18
sS'15031'
p1691
F1.17581478533583e-17
sS'90228'
p1692
F1.68456353420397e-14
sS'90229'
p1693
F1.31329536096233e-15
sS'19041'
p1694
F0.00181645641602961
sS'19040'
p1695
F1.88579855153752e-05
sS'44104'
p1696
F7.96432716236382e-06
sS'44105'
p1697
F8.01807469557074e-14
sS'44106'
p1698
F2.0649667033673e-07
sS'50119'
p1699
F7.50070310803753e-08
sS'44100'
p1700
F5.01135624183716e-07
sS'44101'
p1701
F1.48242287673608e-05
sS'44102'
p1702
F1.36186728490562e-05
sS'16032'
p1703
F2.05826256883358e-15
sS'50112'
p1704
F1.90388610332954e-17
sS'31071'
p1705
F1.04001268661857e-10
sS'52125'
p1706
F1.02363005421376e-07
sS'38089'
p1707
F1.76175831189854e-09
sS'1003'
p1708
F1.41394830893457e-09
sS'1002'
p1709
F1.16619352217164e-08
sS'1001'
p1710
F1.74858832096101e-11
sS'50115'
p1711
F2.15694115088413e-09
sS'96247'
p1712
F1.83763439170666e-14
sS'14030'
p1713
F5.2956590241576e-21
sS'63157'
p1714
F1.09850913060932e-14
sS'52124'
p1715
F1.14547957896959e-09
sS'62150'
p1716
F2.94622152113642e-06
sS'59142'
p1717
F4.99378532833818e-14
sS'3007'
p1718
F4.2040314854475e-22
sS'3006'
p1719
F2.53535440931395e-22
sS'60150'
p1720
F2.09322552007943e-06
sS'93238'
p1721
F1.09352663330423e-12
sS'54123'
p1722
F3.43166382529708e-53
sS'32070'
p1723
F1.63864922075753e-13
sS'7014'
p1724
F1.87822314544092e-14
sS'7015'
p1725
F1.04349364418173e-06
sS'32074'
p1726
F1.43861207810514e-09
sS'32076'
p1727
F9.76893336289005e-09
sS'50126'
p1728
F2.73994525984523e-07
sS'50125'
p1729
F3.57922148804081e-12
sS'50124'
p1730
F1.39942660151113e-07
sS'50123'
p1731
F2.57334950106141e-10
sS'50122'
p1732
F8.45580003213591e-08
sS'33074'
p1733
F9.48429800541386e-19
sS'33075'
p1734
F3.55392652589264e-09
sS'68170'
p1735
F3.36971828358695e-12
sS'94238'
p1736
F3.13832670053925e-07
sS'37087'
p1737
F6.02604094065832e-08
sS'37086'
p1738
F3.11521973499496e-14
sS'37085'
p1739
F1.04528829693933e-08
sS'30064'
p1740
F1.32120060975345e-21
sS'38090'
p1741
F7.17488137849871e-06
sS'52329'
p1742
F8.26757386248404e-13
sS'52327'
p1743
F6.03669588208388e-11
sS'53135'
p1744
F4.2408335031902e-13
sS'32073'
p1745
F5.56220697201123e-10
sS'11022'
p1746
F1.76942291754176e-11
sS'66156'
p1747
F2.76948098128093e-18
sS'53131'
p1748
F1.78104359834236e-10
sS'18040'
p1749
F1.09796335846198e-14
sS'96244'
p1750
F5.92236562635639e-09
sS'56140'
p1751
F7.27163419179924e-10
sS'34077'
p1752
F1.37879447347349e-08
sS'34076'
p1753
F4.68989342845409e-11
sS'34074'
p1754
F1.67095362222544e-15
sS'34079'
p1755
F1.26262641560956e-07
sS'34078'
p1756
F5.84179877803976e-08
sS'96246'
p1757
F2.82882797589013e-12
sS'12024'
p1758
F8.36393877723813e-06
sS'12025'
p1759
F1.532204068526e-10
sS'12026'
p1760
F5.94548171181592e-15
sS'22046'
p1761
F5.30693435719011e-23
sS'60142'
p1762
F9.41845612042546e-08
sS'60143'
p1763
F1.48046929140131e-05
sS'68162'
p1764
F1.97887191021578e-18
sS'64158'
p1765
F5.68705951085085e-07
sS'94244'
p1766
F2.89228586463882e-12
sS'22049'
p1767
F5.58030546468257e-34
sS'22048'
p1768
F1.10615742839506e-30
sS'44098'
p1769
F2.62634500448736e-15
sS'44099'
p1770
F8.52143382773859e-10
sS'50120'
p1771
F7.43657398387122e-08
sS'95242'
p1772
F2.20198058480088e-13
sS'96243'
p1773
F3.01488987866044e-10
sS'56134'
p1774
F3.52209628408713e-10
sS'38086'
p1775
F1.57050760193144e-10
sS'38087'
p1776
F1.84060032025922e-11
sS'38084'
p1777
F3.50137036009152e-16
sS'18036'
p1778
F5.14694689863144e-17
sS'48315'
p1779
F4.45685160657529e-12
sS'53127'
p1780
F2.39185608853843e-07
sS'61147'
p1781
F1.31529806940037e-06
sS'51124'
p1782
F3.57291732726114e-12
sS'28064'
p1783
F2.93726429479145e-21
sS'51126'
p1784
F4.31518952726004e-13
sS'16034'
p1785
F3.7580228608402e-15
sS'28061'
p1786
F3.3741416507154e-24
sS'28060'
p1787
F9.84484497383257e-30
sS'38088'
p1788
F1.08493857668389e-07
sS'28062'
p1789
F1.42524731299106e-22
sS'64156'
p1790
F6.39825183728507e-07
sS'92233'
p1791
F1.49656352292747e-11
sS'43099'
p1792
F1.59725613450479e-05
sS'62148'
p1793
F7.37315406638591e-07
sS'92234'
p1794
F2.81034636464754e-08
sS'96248'
p1795
F4.04880215188316e-16
sS'50114'
p1796
F5.07101898770657e-14
sS'56135'
p1797
F8.219192897589e-12
sS'66162'
p1798
F1.37742957756432e-09
sS'96249'
p1799
F7.76172260245005e-26
sS'36080'
p1800
F2.63966564852594e-16
sS'47107'
p1801
F1.39094238061196e-12
sS'6012'
p1802
F1.73364198051142e-13
sS'39090'
p1803
F1.81995994764766e-09
sS'22050'
p1804
F6.42488552413228e-38
sS'92239'
p1805
F1.83436528473392e-14
sS'35081'
p1806
F5.48537694046907e-07
sS'93236'
p1807
F3.33287946478626e-12
sS'36082'
p1808
F6.31460214333378e-12
sS'36083'
p1809
F1.74758611232875e-10
sS'36084'
p1810
F6.93821823206389e-11
sS'18038'
p1811
F6.24477143110271e-14
sS'36086'
p1812
F6.01279316879862e-12
sS'42092'
p1813
F1.61789027146972e-19
sS'4009'
p1814
F8.5750160891427e-18
sS'62149'
p1815
F2.16942335886521e-07
sS'94243'
p1816
F4.12309898284954e-15
sS'90227'
p1817
F5.18559167709298e-21
sS'47109'
p1818
F7.73364770802342e-07
sS'59141'
p1819
F1.52224991438769e-05
sS'66163'
p1820
F7.01523214114113e-10
sS'50118'
p1821
F7.53314065968361e-08
sS'36085'
p1822
F1.76181633219253e-12
sS'26058'
p1823
F6.25304675251166e-30
sS'61151'
p1824
F6.85068697647337e-13
sS'42094'
p1825
F3.36270819558876e-11
sS'42095'
p1826
F1.67166815873107e-05
sS'42096'
p1827
F3.0861869420732e-07
sS'19039'
p1828
F0.0264607274208959
sS'42098'
p1829
F1.62750284181485e-05
sS'42099'
p1830
F4.11828073487003e-11
sS'26056'
p1831
F3.87486113285957e-38
sS'26057'
p1832
F1.01122056227007e-35
sS'26054'
p1833
F5.68515203327085e-52
sS'92238'
p1834
F0.0350027364626418
sS'14029'
p1835
F2.13615148094364e-19
sS'94240'
p1836
F2.03030161833995e-05
sS'67366'
p1837
F3.47967946312219e-13
sS'66160'
p1838
F9.52003579033383e-10
sS'44103'
p1839
F6.03801051822775e-09
sS'23051'
p1840
F7.29837142958038e-43
sS'95241'
p1841
F1.58938032492789e-06
sS'64160'
p1842
F2.66612808446097e-07
sS'62154'
p1843
F3.30392409921107e-07
sS'62153'
p1844
F1.93720172876951e-12
sS'62152'
p1845
F1.41258895747885e-06
sS'62151'
p1846
F6.18368865145803e-07
sS'47111'
p1847
F5.93800678215851e-12
sS'27059'
p1848
F2.58562039820161e-31
sS'27058'
p1849
F3.76228244258465e-40
sS'68167'
p1850
F1.58202293491375e-11
sS'92237'
p1851
F5.87256137409421e-11
sS'57139'
p1852
F1.03381789700992e-05
sS'44096'
p1853
F1.75392961099796e-25
sS'94241'
p1854
F6.09276226191793e-06
sS'92236'
p1855
F5.78943687057791e-05
sS'60147'
p1856
F2.34786667349973e-10
sS'66161'
p1857
F1.06095722329117e-09
sS'50116'
p1858
F1.48664091923662e-08
sS'50113'
p1859
F8.84642687828828e-21
sS'22047'
p1860
F4.31458260741495e-27
sS'94242'
p1861
F5.39314639695184e-07
sS'50117'
p1862
F7.43365471200778e-08
sS'2003'
p1863
F2.8067776698023e-10
sS'66158'
p1864
F5.22060401856698e-16
sS'29065'
p1865
F1.20524892283689e-14
sS'58139'
p1866
F2.46890757787249e-13
sS'29063'
p1867
F9.70913897909939e-29
sS'2004'
p1868
F5.62077360619491e-08
sS'92241'
p1869
F4.73925992649796e-26
sS'92232'
p1870
F7.80295923148932e-13
sS'57138'
p1871
F1.09873044135482e-10
sS'36078'
p1872
F9.35046048136451e-25
sS'61148'
p1873
F4.92861034437322e-12
ssg77
g78
sg449
g30
sg450
Nsbag0
(g95
g2
Ntp1874
Rp1875
(dp1876
g99
F0.0199571324397994
sg100
F0.0199571324397994
sg90
g101
sg102
I01
sg103
g104
sg105
F1000000.0
sg106
(dp1877
S'58138'
p1878
F0.0
sS'48116'
p1879
F0.0
sS'66164'
p1880
F0.0
sS'48114'
p1881
F0.0
sS'48113'
p1882
F0.0
sS'48112'
p1883
F0.0
sS'48111'
p1884
F0.0
sS'21045'
p1885
F0.0
sS'95243'
p1886
F0.0
sS'63151'
p1887
F0.0
sS'58136'
p1888
F0.0
sS'60146'
p1889
F0.0
sS'61348'
p1890
F0.0
sS'62144'
p1891
F0.0
sS'62147'
p1892
F0.0
sS'8017'
p1893
F0.0
sS'8016'
p1894
F0.0
sS'40090'
p1895
F0.0
sS'40091'
p1896
F0.0
sS'40096'
p1897
F0.0
sS'40094'
p1898
F0.0
sS'40095'
p1899
F0.0
sS'46102'
p1900
F0.0
sS'96250'
p1901
F0.0
sS'46106'
p1902
F0.0
sS'46107'
p1903
F0.0
sS'46104'
p1904
F0.0
sS'46105'
p1905
F0.0
sS'63154'
p1906
F0.0
sS'63155'
p1907
F0.0
sS'46108'
p1908
F0.0
sS'48110'
p1909
F0.0
sS'28058'
p1910
F0.0
sS'28059'
p1911
F0.0
sS'63152'
p1912
F0.0
sS'58140'
p1913
F2.74792574915557e-49
sS'54131'
p1914
F0.0
sS'64153'
p1915
F0.0
sS'64152'
p1916
F9.97856622249497e-06
sS'64155'
p1917
F0.00073841390028737
sS'60148'
p1918
F0.0
sS'64157'
p1919
F0.000780822806723391
sS'60144'
p1920
F2.86514597613361e-34
sS'57140'
p1921
F0.0
sS'56136'
p1922
F0.0
sS'58142'
p1923
F0.0
sS'96245'
p1924
F0.0
sS'34082'
p1925
F0.0
sS'46110'
p1926
F0.0
sS'42100'
p1927
F0.0
sS'48106'
p1928
F0.0
sS'48108'
p1929
F0.0
sS'63153'
p1930
F0.0
sS'42097'
p1931
F0.0
sS'14028'
p1932
F0.0
sS'41093'
p1933
F0.0
sS'24050'
p1934
F0.0
sS'24052'
p1935
F0.0
sS'24053'
p1936
F0.0
sS'24054'
p1937
F0.0
sS'54126'
p1938
F0.0
sS'54124'
p1939
F0.0
sS'65159'
p1940
F0.0
sS'58144'
p1941
F0.0
sS'54129'
p1942
F0.0
sS'54128'
p1943
F0.0
sS'58141'
p1944
F0.0
sS'56138'
p1945
F0.0
sS'58143'
p1946
F0.0
sS'41094'
p1947
F0.0
sS'20043'
p1948
F0.0
sS'20042'
p1949
F0.0
sS'34080'
p1950
F0.0
sS'20040'
p1951
F0.0
sS'41095'
p1952
F0.0
sS'20046'
p1953
F0.0
sS'11023'
p1954
F0.0
sS'20044'
p1955
F0.0
sS'60145'
p1956
F0.0
sS'20048'
p1957
F0.0
sS'67165'
p1958
F0.0
sS'35079'
p1959
F0.0
sS'68164'
p1960
F0.0
sS'92240'
p1961
F0.0
sS'51123'
p1962
F0.0
sS'59143'
p1963
F0.0
sS'68166'
p1964
F0.0
sS'90234'
p1965
F0.0
sS'5010'
p1966
F0.0
sS'5011'
p1967
F0.0
sS'65160'
p1968
F0.0
sS'52126'
p1969
F0.0
sS'52120'
p1970
F0.0
sS'52123'
p1971
F0.0
sS'52122'
p1972
F0.0
sS'94237'
p1973
F0.0
sS'94236'
p1974
F0.0
sS'25055'
p1975
F0.0
sS'52128'
p1976
F0.0
sS'40092'
p1977
F0.0
sS'95244'
p1978
F0.0
sS'40093'
p1979
F0.0
sS'54134'
p1980
F0.0
sS'54135'
p1981
F0.0
sS'54136'
p1982
F0.0
sS'54130'
p1983
F0.0
sS'9019'
p1984
F0.0149678493298075
sS'54132'
p1985
F0.0
sS'54133'
p1986
F0.0
sS'32072'
p1987
F0.0
sS'39089'
p1988
F0.0
sS'93237'
p1989
F0.0
sS'91233'
p1990
F0.0
sS'93235'
p1991
F0.0
sS'55137'
p1992
F0.0
sS'55136'
p1993
F0.0
sS'55135'
p1994
F0.0
sS'55134'
p1995
F0.0
sS'55133'
p1996
F0.0
sS'64154'
p1997
F0.000108766371797055
sS'56132'
p1998
F0.0
sS'49115'
p1999
F0.0
sS'56130'
p2000
F0.0
sS'13027'
p2001
F0.0
sS'56137'
p2002
F0.0
sS'31069'
p2003
F0.0
sS'49113'
p2004
F0.0
sS'90233'
p2005
F0.0
sS'90232'
p2006
F0.0
sS'45105'
p2007
F0.0
sS'90230'
p2008
F0.0
sS'45103'
p2009
F0.0
sS'39091'
p2010
F0.0
sS'47310'
p2011
F0.0
sS'52132'
p2012
F0.0
sS'17035'
p2013
F0.0
sS'52130'
p2014
F0.0
sS'17037'
p2015
F0.0
sS'92235'
p2016
F0.0
sS'94239'
p2017
F0.0
sS'61149'
p2018
F0.0
sS'93239'
p2019
F0.0
sS'16036'
p2020
F0.0
sS'56133'
p2021
F0.0
sS'95342'
p2022
F0.0
sS'63156'
p2023
F0.0
sS'95344'
p2024
F0.0
sS'53130'
p2025
F0.0
sS'51125'
p2026
F0.0
sS'91231'
p2027
F0.0
sS'91232'
p2028
F0.0
sS'53129'
p2029
F0.0
sS'96240'
p2030
F0.0
sS'96241'
p2031
F0.0
sS'96242'
p2032
F0.0
sS'51121'
p2033
F0.0
sS'68168'
p2034
F0.0
sS'16033'
p2035
F0.0
sS'15031'
p2036
F0.0
sS'90228'
p2037
F0.0
sS'90229'
p2038
F0.0
sS'19041'
p2039
F0.0
sS'19040'
p2040
F0.0
sS'44104'
p2041
F0.0
sS'44105'
p2042
F0.0
sS'44106'
p2043
F0.0
sS'50119'
p2044
F0.0
sS'44100'
p2045
F0.0
sS'44101'
p2046
F0.0
sS'44102'
p2047
F0.0
sS'16032'
p2048
F0.0
sS'50112'
p2049
F0.0
sS'31071'
p2050
F0.0
sS'52125'
p2051
F0.0
sS'38089'
p2052
F0.0
sS'1003'
p2053
F0.0
sS'1002'
p2054
F0.0
sS'1001'
p2055
F0.0
sS'50115'
p2056
F0.0
sS'96247'
p2057
F0.0
sS'14030'
p2058
F0.0
sS'63157'
p2059
F0.0
sS'52124'
p2060
F0.0
sS'62150'
p2061
F0.0
sS'59142'
p2062
F0.0
sS'3007'
p2063
F0.0
sS'3006'
p2064
F0.0
sS'60150'
p2065
F0.0
sS'93238'
p2066
F0.0
sS'54123'
p2067
F0.0
sS'32070'
p2068
F0.0
sS'7014'
p2069
F0.0
sS'7015'
p2070
F0.0
sS'32074'
p2071
F0.0
sS'32076'
p2072
F0.0
sS'50126'
p2073
F0.0
sS'50125'
p2074
F0.0
sS'50124'
p2075
F0.0
sS'50123'
p2076
F0.0
sS'50122'
p2077
F0.0
sS'33074'
p2078
F0.0
sS'33075'
p2079
F0.0
sS'68170'
p2080
F0.0
sS'94238'
p2081
F0.0
sS'37087'
p2082
F0.0
sS'37086'
p2083
F0.0
sS'37085'
p2084
F0.0
sS'30064'
p2085
F0.0
sS'38090'
p2086
F0.0
sS'52329'
p2087
F0.0
sS'52327'
p2088
F0.0
sS'53135'
p2089
F0.0
sS'32073'
p2090
F0.0
sS'11022'
p2091
F0.0
sS'66156'
p2092
F0.0
sS'53131'
p2093
F0.0
sS'18040'
p2094
F0.0
sS'96244'
p2095
F0.0
sS'56140'
p2096
F0.0
sS'34077'
p2097
F0.0
sS'34076'
p2098
F0.0
sS'34074'
p2099
F0.0
sS'34079'
p2100
F0.0
sS'34078'
p2101
F0.0
sS'96246'
p2102
F0.0
sS'12024'
p2103
F0.0
sS'12025'
p2104
F0.0
sS'12026'
p2105
F0.0
sS'22046'
p2106
F0.0
sS'60142'
p2107
F0.0
sS'60143'
p2108
F0.0
sS'68162'
p2109
F0.0
sS'64158'
p2110
F0.00123933792451062
sS'94244'
p2111
F0.0
sS'22049'
p2112
F0.0
sS'22048'
p2113
F0.0
sS'44098'
p2114
F0.0
sS'44099'
p2115
F0.0
sS'50120'
p2116
F0.0
sS'95242'
p2117
F0.0
sS'96243'
p2118
F0.0
sS'56134'
p2119
F0.0
sS'38086'
p2120
F0.0
sS'38087'
p2121
F0.0
sS'38084'
p2122
F0.0
sS'18036'
p2123
F0.0
sS'48315'
p2124
F0.0
sS'53127'
p2125
F0.0
sS'61147'
p2126
F0.0
sS'51124'
p2127
F0.0
sS'28064'
p2128
F0.0
sS'51126'
p2129
F0.0
sS'16034'
p2130
F0.0
sS'28061'
p2131
F0.0
sS'28060'
p2132
F0.0
sS'38088'
p2133
F0.0
sS'28062'
p2134
F0.0
sS'64156'
p2135
F0.00102130625261051
sS'92233'
p2136
F0.0
sS'43099'
p2137
F0.0
sS'62148'
p2138
F6.08778692145636e-19
sS'92234'
p2139
F0.0
sS'96248'
p2140
F0.0
sS'50114'
p2141
F0.0
sS'56135'
p2142
F0.0
sS'66162'
p2143
F0.0
sS'96249'
p2144
F0.0
sS'36080'
p2145
F0.0
sS'47107'
p2146
F0.0
sS'6012'
p2147
F0.0
sS'39090'
p2148
F0.0
sS'22050'
p2149
F0.0
sS'92239'
p2150
F0.0
sS'35081'
p2151
F0.0
sS'93236'
p2152
F0.0
sS'36082'
p2153
F0.0
sS'36083'
p2154
F0.0
sS'36084'
p2155
F0.0
sS'18038'
p2156
F0.0
sS'36086'
p2157
F0.0
sS'42092'
p2158
F0.0
sS'4009'
p2159
F0.0
sS'62149'
p2160
F0.0
sS'94243'
p2161
F0.0
sS'90227'
p2162
F0.0
sS'47109'
p2163
F0.0
sS'59141'
p2164
F0.0
sS'66163'
p2165
F0.0
sS'50118'
p2166
F0.0
sS'36085'
p2167
F0.0
sS'26058'
p2168
F0.0
sS'61151'
p2169
F0.0
sS'42094'
p2170
F0.0
sS'42095'
p2171
F0.0
sS'42096'
p2172
F0.0
sS'19039'
p2173
F0.0
sS'42098'
p2174
F0.0
sS'42099'
p2175
F0.0
sS'26056'
p2176
F0.0
sS'26057'
p2177
F0.0
sS'26054'
p2178
F0.0
sS'92238'
p2179
F0.0
sS'14029'
p2180
F0.0
sS'94240'
p2181
F0.0
sS'67366'
p2182
F0.0
sS'66160'
p2183
F0.0
sS'44103'
p2184
F0.0
sS'23051'
p2185
F0.0
sS'95241'
p2186
F0.0
sS'64160'
p2187
F0.00109065728784055
sS'62154'
p2188
F0.0
sS'62153'
p2189
F0.0
sS'62152'
p2190
F0.0
sS'62151'
p2191
F0.0
sS'47111'
p2192
F0.0
sS'27059'
p2193
F0.0
sS'27058'
p2194
F0.0
sS'68167'
p2195
F0.0
sS'92237'
p2196
F0.0
sS'57139'
p2197
F0.0
sS'44096'
p2198
F0.0
sS'94241'
p2199
F0.0
sS'92236'
p2200
F0.0
sS'60147'
p2201
F0.0
sS'66161'
p2202
F0.0
sS'50116'
p2203
F0.0
sS'50113'
p2204
F0.0
sS'22047'
p2205
F0.0
sS'94242'
p2206
F0.0
sS'50117'
p2207
F0.0
sS'2003'
p2208
F0.0
sS'66158'
p2209
F0.0
sS'29065'
p2210
F0.0
sS'58139'
p2211
F0.0
sS'29063'
p2212
F0.0
sS'2004'
p2213
F6.08778692145636e-19
sS'92241'
p2214
F0.0
sS'92232'
p2215
F0.0
sS'57138'
p2216
F0.0
sS'36078'
p2217
F0.0
sS'61148'
p2218
F0.0
ssg77
g78
sg449
g26
sg450
NsbasS'betaEff'
p2219
F0.00549785
sS'maxdamageflux'
p2220
F171723000000000.0
sb.